
ATMEGA16.elf:     file format elf32-avr

Sections:
Idx Name          Size      VMA       LMA       File off  Algn
  0 .text         000001c8  00000000  00000000  00000074  2**1
                  CONTENTS, ALLOC, LOAD, READONLY, CODE
  1 .data         00000000  00800060  00800060  00000c44  2**0
                  ALLOC, LOAD, DATA
  2 .comment      0000002f  00000000  00000000  00000c44  2**0
                  CONTENTS, READONLY
  3 .debug_aranges 00000198  00000000  00000000  00000c73  2**0
                  CONTENTS, READONLY, DEBUGGING
  4 .debug_info   00003717  00000000  00000000  00000e0b  2**0
                  CONTENTS, READONLY, DEBUGGING
  5 .debug_abbrev 00000a27  00000000  00000000  00004522  2**0
                  CONTENTS, READONLY, DEBUGGING
  6 .debug_line   00001041  00000000  00000000  00004f49  2**0
                  CONTENTS, READONLY, DEBUGGING
  7 .debug_frame  000004b8  00000000  00000000  00005f8c  2**2
                  CONTENTS, READONLY, DEBUGGING
  8 .debug_str    000002e9  00000000  00000000  00006444  2**0
                  CONTENTS, READONLY, DEBUGGING
  9 .debug_loc    000024ac  00000000  00000000  0000672d  2**0
                  CONTENTS, READONLY, DEBUGGING
 10 .debug_ranges 00000148  00000000  00000000  00008bd9  2**0
                  CONTENTS, READONLY, DEBUGGING
 11 .text         00000004  00000bcc  00000bcc  00000c40  2**1
                  CONTENTS, ALLOC, LOAD, READONLY, CODE
 12 .note.gnu.avr.deviceinfo 0000003c  00000000  00000000  00008d24  2**2
                  CONTENTS, READONLY, DEBUGGING
 13 .text.DIO_set_bit_dir 000000e0  000002ca  000002ca  0000033e  2**1
                  CONTENTS, ALLOC, LOAD, READONLY, CODE
 14 .text.DIO_write_bit 000000e0  000003aa  000003aa  0000041e  2**1
                  CONTENTS, ALLOC, LOAD, READONLY, CODE
 15 .text.DIO_set_dir 00000026  00000ad2  00000ad2  00000b46  2**1
                  CONTENTS, ALLOC, LOAD, READONLY, CODE
 16 .text.DIO_write_port 00000026  00000af8  00000af8  00000b6c  2**1
                  CONTENTS, ALLOC, LOAD, READONLY, CODE
 17 .text.LCD_send_char 00000060  000008a4  000008a4  00000918  2**1
                  CONTENTS, ALLOC, LOAD, READONLY, CODE
 18 .text.LCD_send_cmd 00000060  00000904  00000904  00000978  2**1
                  CONTENTS, ALLOC, LOAD, READONLY, CODE
 19 .text.LCD_inatialize 000000b0  0000062c  0000062c  000006a0  2**1
                  CONTENTS, ALLOC, LOAD, READONLY, CODE
 20 .text.LCD_send_Snum 000000ac  000006dc  000006dc  00000750  2**1
                  CONTENTS, ALLOC, LOAD, READONLY, CODE
 21 .text.LCD_move_cursor 0000005a  000009c2  000009c2  00000a36  2**1
                  CONTENTS, ALLOC, LOAD, READONLY, CODE
 22 .text.LCD_send_string 000000a6  00000788  00000788  000007fc  2**1
                  CONTENTS, ALLOC, LOAD, READONLY, CODE
 23 .progmemx.data 0000000b  000001c8  000001c8  0000023c  2**0
                  CONTENTS, ALLOC, LOAD, READONLY, PROGMEMX
 24 .text.main    000000f6  000001d4  000001d4  00000248  2**1
                  CONTENTS, ALLOC, LOAD, READONLY, CODE
 25 .text.Servo_motor_angle 0000001e  00000b40  00000b40  00000bb4  2**1
                  CONTENTS, ALLOC, LOAD, READONLY, CODE
 26 .text.Timer1_wave_fast_PWM 00000076  0000082e  0000082e  000008a2  2**1
                  CONTENTS, ALLOC, LOAD, READONLY, CODE
 27 .text.avrlibc.fplib 0000000e  00000b6e  00000b6e  00000be2  2**1
                  CONTENTS, ALLOC, LOAD, READONLY, CODE
 28 .text.avrlibc.fplib 000000ce  0000055e  0000055e  000005d2  2**1
                  CONTENTS, ALLOC, LOAD, READONLY, CODE
 29 .text.avrlibc.fplib 0000005e  00000964  00000964  000009d8  2**1
                  CONTENTS, ALLOC, LOAD, READONLY, CODE
 30 .text.avrlibc.fplib 0000000c  00000ba6  00000ba6  00000c1a  2**1
                  CONTENTS, ALLOC, LOAD, READONLY, CODE
 31 .text.avrlibc.fplib 00000006  00000bc6  00000bc6  00000c3a  2**1
                  CONTENTS, ALLOC, LOAD, READONLY, CODE
 32 .text.avrlibc.fplib 0000000e  00000b7c  00000b7c  00000bf0  2**1
                  CONTENTS, ALLOC, LOAD, READONLY, CODE
 33 .text.avrlibc.fplib 0000000e  00000b8a  00000b8a  00000bfe  2**1
                  CONTENTS, ALLOC, LOAD, READONLY, CODE
 34 .text.avrlibc.fplib 00000022  00000b1e  00000b1e  00000b92  2**1
                  CONTENTS, ALLOC, LOAD, READONLY, CODE
 35 .text.avrlibc.fplib 00000044  00000a1c  00000a1c  00000a90  2**1
                  CONTENTS, ALLOC, LOAD, READONLY, CODE
 36 .text.avrlibc.fplib 0000000e  00000b98  00000b98  00000c0c  2**1
                  CONTENTS, ALLOC, LOAD, READONLY, CODE
 37 .text.avrlibc.fplib 00000008  00000bbe  00000bbe  00000c32  2**1
                  CONTENTS, ALLOC, LOAD, READONLY, CODE
 38 .text.avrlibc.fplib 000000d4  0000048a  0000048a  000004fe  2**1
                  CONTENTS, ALLOC, LOAD, READONLY, CODE
 39 .text.libgcc.div 0000002e  00000aa4  00000aa4  00000b18  2**1
                  CONTENTS, ALLOC, LOAD, READONLY, CODE
 40 .text.libgcc.div 00000010  00000b5e  00000b5e  00000bd2  2**1
                  CONTENTS, ALLOC, LOAD, READONLY, CODE
 41 .text.libgcc  0000000c  00000bb2  00000bb2  00000c26  2**1
                  CONTENTS, ALLOC, LOAD, READONLY, CODE
 42 .text.libgcc.div 00000044  00000a60  00000a60  00000ad4  2**1
                  CONTENTS, ALLOC, LOAD, READONLY, CODE

Disassembly of section .text:

00000000 <__vectors>:
   0:	0c 94 ba 00 	jmp	0x174	; 0x174 <__ctors_end>
   4:	0c 94 e6 05 	jmp	0xbcc	; 0xbcc <__bad_interrupt>
   8:	0c 94 e6 05 	jmp	0xbcc	; 0xbcc <__bad_interrupt>
   c:	0c 94 e6 05 	jmp	0xbcc	; 0xbcc <__bad_interrupt>
  10:	0c 94 e6 05 	jmp	0xbcc	; 0xbcc <__bad_interrupt>
  14:	0c 94 e6 05 	jmp	0xbcc	; 0xbcc <__bad_interrupt>
  18:	0c 94 e6 05 	jmp	0xbcc	; 0xbcc <__bad_interrupt>
  1c:	0c 94 e6 05 	jmp	0xbcc	; 0xbcc <__bad_interrupt>
  20:	0c 94 e6 05 	jmp	0xbcc	; 0xbcc <__bad_interrupt>
  24:	0c 94 e6 05 	jmp	0xbcc	; 0xbcc <__bad_interrupt>
  28:	0c 94 e6 05 	jmp	0xbcc	; 0xbcc <__bad_interrupt>
  2c:	0c 94 e6 05 	jmp	0xbcc	; 0xbcc <__bad_interrupt>
  30:	0c 94 e6 05 	jmp	0xbcc	; 0xbcc <__bad_interrupt>
  34:	0c 94 e6 05 	jmp	0xbcc	; 0xbcc <__bad_interrupt>
  38:	0c 94 e6 05 	jmp	0xbcc	; 0xbcc <__bad_interrupt>
  3c:	0c 94 e6 05 	jmp	0xbcc	; 0xbcc <__bad_interrupt>
  40:	0c 94 e6 05 	jmp	0xbcc	; 0xbcc <__bad_interrupt>
  44:	0c 94 e6 05 	jmp	0xbcc	; 0xbcc <__bad_interrupt>
  48:	0c 94 e6 05 	jmp	0xbcc	; 0xbcc <__bad_interrupt>
  4c:	0c 94 e6 05 	jmp	0xbcc	; 0xbcc <__bad_interrupt>
  50:	0c 94 e6 05 	jmp	0xbcc	; 0xbcc <__bad_interrupt>
  54:	71 01       	movw	r14, r2
  56:	8a 01       	movw	r16, r20
  58:	a3 01       	movw	r20, r6
  5a:	bc 01       	movw	r22, r24
  5c:	d4 01       	movw	r26, r8
  5e:	d4 01       	movw	r26, r8
  60:	d4 01       	movw	r26, r8
  62:	d4 01       	movw	r26, r8
  64:	d4 01       	movw	r26, r8
  66:	d4 01       	movw	r26, r8
  68:	d4 01       	movw	r26, r8
  6a:	d4 01       	movw	r26, r8
  6c:	d4 01       	movw	r26, r8
  6e:	d4 01       	movw	r26, r8
  70:	d4 01       	movw	r26, r8
  72:	d4 01       	movw	r26, r8
  74:	d4 01       	movw	r26, r8
  76:	d4 01       	movw	r26, r8
  78:	d4 01       	movw	r26, r8
  7a:	d4 01       	movw	r26, r8
  7c:	d4 01       	movw	r26, r8
  7e:	d4 01       	movw	r26, r8
  80:	d4 01       	movw	r26, r8
  82:	d4 01       	movw	r26, r8
  84:	d4 01       	movw	r26, r8
  86:	d4 01       	movw	r26, r8
  88:	d4 01       	movw	r26, r8
  8a:	d4 01       	movw	r26, r8
  8c:	d4 01       	movw	r26, r8
  8e:	d4 01       	movw	r26, r8
  90:	d4 01       	movw	r26, r8
  92:	d4 01       	movw	r26, r8
  94:	71 01       	movw	r14, r2
  96:	8a 01       	movw	r16, r20
  98:	a3 01       	movw	r20, r6
  9a:	bc 01       	movw	r22, r24
  9c:	e1 01       	movw	r28, r2
  9e:	fa 01       	movw	r30, r20
  a0:	13 02       	muls	r17, r19
  a2:	2c 02       	muls	r18, r28
  a4:	44 02       	muls	r20, r20
  a6:	44 02       	muls	r20, r20
  a8:	44 02       	muls	r20, r20
  aa:	44 02       	muls	r20, r20
  ac:	44 02       	muls	r20, r20
  ae:	44 02       	muls	r20, r20
  b0:	44 02       	muls	r20, r20
  b2:	44 02       	muls	r20, r20
  b4:	44 02       	muls	r20, r20
  b6:	44 02       	muls	r20, r20
  b8:	44 02       	muls	r20, r20
  ba:	44 02       	muls	r20, r20
  bc:	44 02       	muls	r20, r20
  be:	44 02       	muls	r20, r20
  c0:	44 02       	muls	r20, r20
  c2:	44 02       	muls	r20, r20
  c4:	44 02       	muls	r20, r20
  c6:	44 02       	muls	r20, r20
  c8:	44 02       	muls	r20, r20
  ca:	44 02       	muls	r20, r20
  cc:	44 02       	muls	r20, r20
  ce:	44 02       	muls	r20, r20
  d0:	44 02       	muls	r20, r20
  d2:	44 02       	muls	r20, r20
  d4:	44 02       	muls	r20, r20
  d6:	44 02       	muls	r20, r20
  d8:	44 02       	muls	r20, r20
  da:	44 02       	muls	r20, r20
  dc:	e1 01       	movw	r28, r2
  de:	fa 01       	movw	r30, r20
  e0:	13 02       	muls	r17, r19
  e2:	2c 02       	muls	r18, r28
  e4:	74 05       	cpc	r23, r4
  e6:	76 05       	cpc	r23, r6
  e8:	78 05       	cpc	r23, r8
  ea:	7a 05       	cpc	r23, r10
  ec:	7b 05       	cpc	r23, r11
  ee:	7b 05       	cpc	r23, r11
  f0:	7b 05       	cpc	r23, r11
  f2:	7b 05       	cpc	r23, r11
  f4:	7b 05       	cpc	r23, r11
  f6:	7b 05       	cpc	r23, r11
  f8:	7b 05       	cpc	r23, r11
  fa:	7b 05       	cpc	r23, r11
  fc:	7b 05       	cpc	r23, r11
  fe:	7b 05       	cpc	r23, r11
 100:	7b 05       	cpc	r23, r11
 102:	7b 05       	cpc	r23, r11
 104:	7b 05       	cpc	r23, r11
 106:	7b 05       	cpc	r23, r11
 108:	7b 05       	cpc	r23, r11
 10a:	7b 05       	cpc	r23, r11
 10c:	7b 05       	cpc	r23, r11
 10e:	7b 05       	cpc	r23, r11
 110:	7b 05       	cpc	r23, r11
 112:	7b 05       	cpc	r23, r11
 114:	7b 05       	cpc	r23, r11
 116:	7b 05       	cpc	r23, r11
 118:	7b 05       	cpc	r23, r11
 11a:	7b 05       	cpc	r23, r11
 11c:	7b 05       	cpc	r23, r11
 11e:	7b 05       	cpc	r23, r11
 120:	7b 05       	cpc	r23, r11
 122:	7b 05       	cpc	r23, r11
 124:	74 05       	cpc	r23, r4
 126:	76 05       	cpc	r23, r6
 128:	78 05       	cpc	r23, r8
 12a:	7a 05       	cpc	r23, r10
 12c:	87 05       	cpc	r24, r7
 12e:	89 05       	cpc	r24, r9
 130:	8b 05       	cpc	r24, r11
 132:	8d 05       	cpc	r24, r13
 134:	8e 05       	cpc	r24, r14
 136:	8e 05       	cpc	r24, r14
 138:	8e 05       	cpc	r24, r14
 13a:	8e 05       	cpc	r24, r14
 13c:	8e 05       	cpc	r24, r14
 13e:	8e 05       	cpc	r24, r14
 140:	8e 05       	cpc	r24, r14
 142:	8e 05       	cpc	r24, r14
 144:	8e 05       	cpc	r24, r14
 146:	8e 05       	cpc	r24, r14
 148:	8e 05       	cpc	r24, r14
 14a:	8e 05       	cpc	r24, r14
 14c:	8e 05       	cpc	r24, r14
 14e:	8e 05       	cpc	r24, r14
 150:	8e 05       	cpc	r24, r14
 152:	8e 05       	cpc	r24, r14
 154:	8e 05       	cpc	r24, r14
 156:	8e 05       	cpc	r24, r14
 158:	8e 05       	cpc	r24, r14
 15a:	8e 05       	cpc	r24, r14
 15c:	8e 05       	cpc	r24, r14
 15e:	8e 05       	cpc	r24, r14
 160:	8e 05       	cpc	r24, r14
 162:	8e 05       	cpc	r24, r14
 164:	8e 05       	cpc	r24, r14
 166:	8e 05       	cpc	r24, r14
 168:	8e 05       	cpc	r24, r14
 16a:	8e 05       	cpc	r24, r14
 16c:	87 05       	cpc	r24, r7
 16e:	89 05       	cpc	r24, r9
 170:	8b 05       	cpc	r24, r11
 172:	8d 05       	cpc	r24, r13

00000174 <__ctors_end>:
 174:	11 24       	eor	r1, r1
 176:	1f be       	out	0x3f, r1	; 63
 178:	cf e5       	ldi	r28, 0x5F	; 95
 17a:	d4 e0       	ldi	r29, 0x04	; 4
 17c:	de bf       	out	0x3e, r29	; 62
 17e:	cd bf       	out	0x3d, r28	; 61

00000180 <__do_copy_data>:
 180:	e4 e7       	ldi	r30, 0x74	; 116
 182:	f1 e0       	ldi	r31, 0x01	; 1
 184:	41 e0       	ldi	r20, 0x01	; 1
 186:	17 c0       	rjmp	.+46     	; 0x1b6 <__do_clear_bss+0x8>
 188:	b5 91       	lpm	r27, Z+
 18a:	a5 91       	lpm	r26, Z+
 18c:	35 91       	lpm	r19, Z+
 18e:	25 91       	lpm	r18, Z+
 190:	05 91       	lpm	r16, Z+
 192:	07 fd       	sbrc	r16, 7
 194:	0c c0       	rjmp	.+24     	; 0x1ae <__do_clear_bss>
 196:	95 91       	lpm	r25, Z+
 198:	85 91       	lpm	r24, Z+
 19a:	ef 01       	movw	r28, r30
 19c:	f9 2f       	mov	r31, r25
 19e:	e8 2f       	mov	r30, r24
 1a0:	05 90       	lpm	r0, Z+
 1a2:	0d 92       	st	X+, r0
 1a4:	a2 17       	cp	r26, r18
 1a6:	b3 07       	cpc	r27, r19
 1a8:	d9 f7       	brne	.-10     	; 0x1a0 <__do_copy_data+0x20>
 1aa:	fe 01       	movw	r30, r28
 1ac:	04 c0       	rjmp	.+8      	; 0x1b6 <__do_clear_bss+0x8>

000001ae <__do_clear_bss>:
 1ae:	1d 92       	st	X+, r1
 1b0:	a2 17       	cp	r26, r18
 1b2:	b3 07       	cpc	r27, r19
 1b4:	e1 f7       	brne	.-8      	; 0x1ae <__do_clear_bss>
 1b6:	e4 37       	cpi	r30, 0x74	; 116
 1b8:	f4 07       	cpc	r31, r20
 1ba:	31 f7       	brne	.-52     	; 0x188 <__do_copy_data+0x8>
 1bc:	0e 94 ea 00 	call	0x1d4	; 0x1d4 <main>
 1c0:	0c 94 e2 00 	jmp	0x1c4	; 0x1c4 <_exit>

000001c4 <_exit>:
 1c4:	f8 94       	cli

000001c6 <__stop_program>:
 1c6:	ff cf       	rjmp	.-2      	; 0x1c6 <__stop_program>

Disassembly of section .text:

00000bcc <__bad_interrupt>:
 bcc:	0c 94 00 00 	jmp	0	; 0x0 <__TEXT_REGION_ORIGIN__>

Disassembly of section .text.DIO_set_bit_dir:

000002ca <DIO_set_bit_dir>:
 2ca:	90 e0       	ldi	r25, 0x00	; 0
 2cc:	fc 01       	movw	r30, r24
 2ce:	e1 54       	subi	r30, 0x41	; 65
 2d0:	f1 09       	sbc	r31, r1
 2d2:	e4 32       	cpi	r30, 0x24	; 36
 2d4:	f1 05       	cpc	r31, r1
 2d6:	08 f0       	brcs	.+2      	; 0x2da <DIO_set_bit_dir+0x10>
 2d8:	67 c0       	rjmp	.+206    	; 0x3a8 <DIO_set_bit_dir+0xde>
 2da:	e6 5d       	subi	r30, 0xD6	; 214
 2dc:	ff 4f       	sbci	r31, 0xFF	; 255
 2de:	0c 94 d9 05 	jmp	0xbb2	; 0xbb2 <__tablejump2__>
 2e2:	41 30       	cpi	r20, 0x01	; 1
 2e4:	59 f4       	brne	.+22     	; 0x2fc <DIO_set_bit_dir+0x32>
 2e6:	2a b3       	in	r18, 0x1a	; 26
 2e8:	81 e0       	ldi	r24, 0x01	; 1
 2ea:	90 e0       	ldi	r25, 0x00	; 0
 2ec:	02 c0       	rjmp	.+4      	; 0x2f2 <DIO_set_bit_dir+0x28>
 2ee:	88 0f       	add	r24, r24
 2f0:	99 1f       	adc	r25, r25
 2f2:	6a 95       	dec	r22
 2f4:	e2 f7       	brpl	.-8      	; 0x2ee <DIO_set_bit_dir+0x24>
 2f6:	82 2b       	or	r24, r18
 2f8:	8a bb       	out	0x1a, r24	; 26
 2fa:	08 95       	ret
 2fc:	2a b3       	in	r18, 0x1a	; 26
 2fe:	81 e0       	ldi	r24, 0x01	; 1
 300:	90 e0       	ldi	r25, 0x00	; 0
 302:	02 c0       	rjmp	.+4      	; 0x308 <DIO_set_bit_dir+0x3e>
 304:	88 0f       	add	r24, r24
 306:	99 1f       	adc	r25, r25
 308:	6a 95       	dec	r22
 30a:	e2 f7       	brpl	.-8      	; 0x304 <DIO_set_bit_dir+0x3a>
 30c:	80 95       	com	r24
 30e:	82 23       	and	r24, r18
 310:	8a bb       	out	0x1a, r24	; 26
 312:	08 95       	ret
 314:	41 30       	cpi	r20, 0x01	; 1
 316:	59 f4       	brne	.+22     	; 0x32e <DIO_set_bit_dir+0x64>
 318:	27 b3       	in	r18, 0x17	; 23
 31a:	81 e0       	ldi	r24, 0x01	; 1
 31c:	90 e0       	ldi	r25, 0x00	; 0
 31e:	02 c0       	rjmp	.+4      	; 0x324 <DIO_set_bit_dir+0x5a>
 320:	88 0f       	add	r24, r24
 322:	99 1f       	adc	r25, r25
 324:	6a 95       	dec	r22
 326:	e2 f7       	brpl	.-8      	; 0x320 <DIO_set_bit_dir+0x56>
 328:	82 2b       	or	r24, r18
 32a:	87 bb       	out	0x17, r24	; 23
 32c:	08 95       	ret
 32e:	27 b3       	in	r18, 0x17	; 23
 330:	81 e0       	ldi	r24, 0x01	; 1
 332:	90 e0       	ldi	r25, 0x00	; 0
 334:	02 c0       	rjmp	.+4      	; 0x33a <DIO_set_bit_dir+0x70>
 336:	88 0f       	add	r24, r24
 338:	99 1f       	adc	r25, r25
 33a:	6a 95       	dec	r22
 33c:	e2 f7       	brpl	.-8      	; 0x336 <DIO_set_bit_dir+0x6c>
 33e:	80 95       	com	r24
 340:	82 23       	and	r24, r18
 342:	87 bb       	out	0x17, r24	; 23
 344:	08 95       	ret
 346:	41 30       	cpi	r20, 0x01	; 1
 348:	59 f4       	brne	.+22     	; 0x360 <DIO_set_bit_dir+0x96>
 34a:	24 b3       	in	r18, 0x14	; 20
 34c:	81 e0       	ldi	r24, 0x01	; 1
 34e:	90 e0       	ldi	r25, 0x00	; 0
 350:	02 c0       	rjmp	.+4      	; 0x356 <DIO_set_bit_dir+0x8c>
 352:	88 0f       	add	r24, r24
 354:	99 1f       	adc	r25, r25
 356:	6a 95       	dec	r22
 358:	e2 f7       	brpl	.-8      	; 0x352 <DIO_set_bit_dir+0x88>
 35a:	82 2b       	or	r24, r18
 35c:	84 bb       	out	0x14, r24	; 20
 35e:	08 95       	ret
 360:	24 b3       	in	r18, 0x14	; 20
 362:	81 e0       	ldi	r24, 0x01	; 1
 364:	90 e0       	ldi	r25, 0x00	; 0
 366:	02 c0       	rjmp	.+4      	; 0x36c <DIO_set_bit_dir+0xa2>
 368:	88 0f       	add	r24, r24
 36a:	99 1f       	adc	r25, r25
 36c:	6a 95       	dec	r22
 36e:	e2 f7       	brpl	.-8      	; 0x368 <DIO_set_bit_dir+0x9e>
 370:	80 95       	com	r24
 372:	82 23       	and	r24, r18
 374:	84 bb       	out	0x14, r24	; 20
 376:	08 95       	ret
 378:	41 30       	cpi	r20, 0x01	; 1
 37a:	59 f4       	brne	.+22     	; 0x392 <DIO_set_bit_dir+0xc8>
 37c:	21 b3       	in	r18, 0x11	; 17
 37e:	81 e0       	ldi	r24, 0x01	; 1
 380:	90 e0       	ldi	r25, 0x00	; 0
 382:	02 c0       	rjmp	.+4      	; 0x388 <DIO_set_bit_dir+0xbe>
 384:	88 0f       	add	r24, r24
 386:	99 1f       	adc	r25, r25
 388:	6a 95       	dec	r22
 38a:	e2 f7       	brpl	.-8      	; 0x384 <DIO_set_bit_dir+0xba>
 38c:	82 2b       	or	r24, r18
 38e:	81 bb       	out	0x11, r24	; 17
 390:	08 95       	ret
 392:	21 b3       	in	r18, 0x11	; 17
 394:	81 e0       	ldi	r24, 0x01	; 1
 396:	90 e0       	ldi	r25, 0x00	; 0
 398:	02 c0       	rjmp	.+4      	; 0x39e <DIO_set_bit_dir+0xd4>
 39a:	88 0f       	add	r24, r24
 39c:	99 1f       	adc	r25, r25
 39e:	6a 95       	dec	r22
 3a0:	e2 f7       	brpl	.-8      	; 0x39a <DIO_set_bit_dir+0xd0>
 3a2:	80 95       	com	r24
 3a4:	82 23       	and	r24, r18
 3a6:	81 bb       	out	0x11, r24	; 17
 3a8:	08 95       	ret

Disassembly of section .text.DIO_write_bit:

000003aa <DIO_write_bit>:
 3aa:	90 e0       	ldi	r25, 0x00	; 0
 3ac:	fc 01       	movw	r30, r24
 3ae:	e1 54       	subi	r30, 0x41	; 65
 3b0:	f1 09       	sbc	r31, r1
 3b2:	e4 32       	cpi	r30, 0x24	; 36
 3b4:	f1 05       	cpc	r31, r1
 3b6:	08 f0       	brcs	.+2      	; 0x3ba <DIO_write_bit+0x10>
 3b8:	67 c0       	rjmp	.+206    	; 0x488 <__stack+0x29>
 3ba:	e2 5b       	subi	r30, 0xB2	; 178
 3bc:	ff 4f       	sbci	r31, 0xFF	; 255
 3be:	0c 94 d9 05 	jmp	0xbb2	; 0xbb2 <__tablejump2__>
 3c2:	41 30       	cpi	r20, 0x01	; 1
 3c4:	59 f4       	brne	.+22     	; 0x3dc <DIO_write_bit+0x32>
 3c6:	2b b3       	in	r18, 0x1b	; 27
 3c8:	81 e0       	ldi	r24, 0x01	; 1
 3ca:	90 e0       	ldi	r25, 0x00	; 0
 3cc:	02 c0       	rjmp	.+4      	; 0x3d2 <DIO_write_bit+0x28>
 3ce:	88 0f       	add	r24, r24
 3d0:	99 1f       	adc	r25, r25
 3d2:	6a 95       	dec	r22
 3d4:	e2 f7       	brpl	.-8      	; 0x3ce <DIO_write_bit+0x24>
 3d6:	82 2b       	or	r24, r18
 3d8:	8b bb       	out	0x1b, r24	; 27
 3da:	08 95       	ret
 3dc:	2b b3       	in	r18, 0x1b	; 27
 3de:	81 e0       	ldi	r24, 0x01	; 1
 3e0:	90 e0       	ldi	r25, 0x00	; 0
 3e2:	02 c0       	rjmp	.+4      	; 0x3e8 <DIO_write_bit+0x3e>
 3e4:	88 0f       	add	r24, r24
 3e6:	99 1f       	adc	r25, r25
 3e8:	6a 95       	dec	r22
 3ea:	e2 f7       	brpl	.-8      	; 0x3e4 <DIO_write_bit+0x3a>
 3ec:	80 95       	com	r24
 3ee:	82 23       	and	r24, r18
 3f0:	8b bb       	out	0x1b, r24	; 27
 3f2:	08 95       	ret
 3f4:	41 30       	cpi	r20, 0x01	; 1
 3f6:	59 f4       	brne	.+22     	; 0x40e <__DATA_REGION_LENGTH__+0xe>
 3f8:	28 b3       	in	r18, 0x18	; 24
 3fa:	81 e0       	ldi	r24, 0x01	; 1
 3fc:	90 e0       	ldi	r25, 0x00	; 0
 3fe:	02 c0       	rjmp	.+4      	; 0x404 <__DATA_REGION_LENGTH__+0x4>
 400:	88 0f       	add	r24, r24
 402:	99 1f       	adc	r25, r25
 404:	6a 95       	dec	r22
 406:	e2 f7       	brpl	.-8      	; 0x400 <__DATA_REGION_LENGTH__>
 408:	82 2b       	or	r24, r18
 40a:	88 bb       	out	0x18, r24	; 24
 40c:	08 95       	ret
 40e:	28 b3       	in	r18, 0x18	; 24
 410:	81 e0       	ldi	r24, 0x01	; 1
 412:	90 e0       	ldi	r25, 0x00	; 0
 414:	02 c0       	rjmp	.+4      	; 0x41a <__DATA_REGION_LENGTH__+0x1a>
 416:	88 0f       	add	r24, r24
 418:	99 1f       	adc	r25, r25
 41a:	6a 95       	dec	r22
 41c:	e2 f7       	brpl	.-8      	; 0x416 <__DATA_REGION_LENGTH__+0x16>
 41e:	80 95       	com	r24
 420:	82 23       	and	r24, r18
 422:	88 bb       	out	0x18, r24	; 24
 424:	08 95       	ret
 426:	41 30       	cpi	r20, 0x01	; 1
 428:	59 f4       	brne	.+22     	; 0x440 <__DATA_REGION_LENGTH__+0x40>
 42a:	25 b3       	in	r18, 0x15	; 21
 42c:	81 e0       	ldi	r24, 0x01	; 1
 42e:	90 e0       	ldi	r25, 0x00	; 0
 430:	02 c0       	rjmp	.+4      	; 0x436 <__DATA_REGION_LENGTH__+0x36>
 432:	88 0f       	add	r24, r24
 434:	99 1f       	adc	r25, r25
 436:	6a 95       	dec	r22
 438:	e2 f7       	brpl	.-8      	; 0x432 <__DATA_REGION_LENGTH__+0x32>
 43a:	82 2b       	or	r24, r18
 43c:	85 bb       	out	0x15, r24	; 21
 43e:	08 95       	ret
 440:	25 b3       	in	r18, 0x15	; 21
 442:	81 e0       	ldi	r24, 0x01	; 1
 444:	90 e0       	ldi	r25, 0x00	; 0
 446:	02 c0       	rjmp	.+4      	; 0x44c <__DATA_REGION_LENGTH__+0x4c>
 448:	88 0f       	add	r24, r24
 44a:	99 1f       	adc	r25, r25
 44c:	6a 95       	dec	r22
 44e:	e2 f7       	brpl	.-8      	; 0x448 <__DATA_REGION_LENGTH__+0x48>
 450:	80 95       	com	r24
 452:	82 23       	and	r24, r18
 454:	85 bb       	out	0x15, r24	; 21
 456:	08 95       	ret
 458:	41 30       	cpi	r20, 0x01	; 1
 45a:	59 f4       	brne	.+22     	; 0x472 <__stack+0x13>
 45c:	22 b3       	in	r18, 0x12	; 18
 45e:	81 e0       	ldi	r24, 0x01	; 1
 460:	90 e0       	ldi	r25, 0x00	; 0
 462:	02 c0       	rjmp	.+4      	; 0x468 <__stack+0x9>
 464:	88 0f       	add	r24, r24
 466:	99 1f       	adc	r25, r25
 468:	6a 95       	dec	r22
 46a:	e2 f7       	brpl	.-8      	; 0x464 <__stack+0x5>
 46c:	82 2b       	or	r24, r18
 46e:	82 bb       	out	0x12, r24	; 18
 470:	08 95       	ret
 472:	22 b3       	in	r18, 0x12	; 18
 474:	81 e0       	ldi	r24, 0x01	; 1
 476:	90 e0       	ldi	r25, 0x00	; 0
 478:	02 c0       	rjmp	.+4      	; 0x47e <__stack+0x1f>
 47a:	88 0f       	add	r24, r24
 47c:	99 1f       	adc	r25, r25
 47e:	6a 95       	dec	r22
 480:	e2 f7       	brpl	.-8      	; 0x47a <__stack+0x1b>
 482:	80 95       	com	r24
 484:	82 23       	and	r24, r18
 486:	82 bb       	out	0x12, r24	; 18
 488:	08 95       	ret

Disassembly of section .text.DIO_set_dir:

00000ad2 <DIO_set_dir>:
 ad2:	90 e0       	ldi	r25, 0x00	; 0
 ad4:	fc 01       	movw	r30, r24
 ad6:	e1 54       	subi	r30, 0x41	; 65
 ad8:	f1 09       	sbc	r31, r1
 ada:	e4 32       	cpi	r30, 0x24	; 36
 adc:	f1 05       	cpc	r31, r1
 ade:	58 f4       	brcc	.+22     	; 0xaf6 <DIO_set_dir+0x24>
 ae0:	ee 58       	subi	r30, 0x8E	; 142
 ae2:	ff 4f       	sbci	r31, 0xFF	; 255
 ae4:	0c 94 d9 05 	jmp	0xbb2	; 0xbb2 <__tablejump2__>
 ae8:	6a bb       	out	0x1a, r22	; 26
 aea:	08 95       	ret
 aec:	67 bb       	out	0x17, r22	; 23
 aee:	08 95       	ret
 af0:	64 bb       	out	0x14, r22	; 20
 af2:	08 95       	ret
 af4:	61 bb       	out	0x11, r22	; 17
 af6:	08 95       	ret

Disassembly of section .text.DIO_write_port:

00000af8 <DIO_write_port>:
 af8:	90 e0       	ldi	r25, 0x00	; 0
 afa:	fc 01       	movw	r30, r24
 afc:	e1 54       	subi	r30, 0x41	; 65
 afe:	f1 09       	sbc	r31, r1
 b00:	e4 32       	cpi	r30, 0x24	; 36
 b02:	f1 05       	cpc	r31, r1
 b04:	58 f4       	brcc	.+22     	; 0xb1c <DIO_write_port+0x24>
 b06:	ea 56       	subi	r30, 0x6A	; 106
 b08:	ff 4f       	sbci	r31, 0xFF	; 255
 b0a:	0c 94 d9 05 	jmp	0xbb2	; 0xbb2 <__tablejump2__>
 b0e:	6b bb       	out	0x1b, r22	; 27
 b10:	08 95       	ret
 b12:	68 bb       	out	0x18, r22	; 24
 b14:	08 95       	ret
 b16:	65 bb       	out	0x15, r22	; 21
 b18:	08 95       	ret
 b1a:	62 bb       	out	0x12, r22	; 18
 b1c:	08 95       	ret

Disassembly of section .text.LCD_send_char:

000008a4 <LCD_send_char>:
 8a4:	ef 92       	push	r14
 8a6:	ff 92       	push	r15
 8a8:	0f 93       	push	r16
 8aa:	1f 93       	push	r17
 8ac:	cf 93       	push	r28
 8ae:	df 93       	push	r29
 8b0:	f8 2e       	mov	r15, r24
 8b2:	16 2f       	mov	r17, r22
 8b4:	c4 2f       	mov	r28, r20
 8b6:	d2 2f       	mov	r29, r18
 8b8:	80 2f       	mov	r24, r16
 8ba:	6e 2d       	mov	r22, r14
 8bc:	41 e0       	ldi	r20, 0x01	; 1
 8be:	0e 94 d5 01 	call	0x3aa	; 0x3aa <DIO_write_bit>
 8c2:	6f 2d       	mov	r22, r15
 8c4:	81 2f       	mov	r24, r17
 8c6:	0e 94 7c 05 	call	0xaf8	; 0xaf8 <DIO_write_port>
 8ca:	41 e0       	ldi	r20, 0x01	; 1
 8cc:	6d 2f       	mov	r22, r29
 8ce:	8c 2f       	mov	r24, r28
 8d0:	0e 94 d5 01 	call	0x3aa	; 0x3aa <DIO_write_bit>
 8d4:	89 ef       	ldi	r24, 0xF9	; 249
 8d6:	90 e0       	ldi	r25, 0x00	; 0
 8d8:	01 97       	sbiw	r24, 0x01	; 1
 8da:	f1 f7       	brne	.-4      	; 0x8d8 <LCD_send_char+0x34>
 8dc:	00 c0       	rjmp	.+0      	; 0x8de <LCD_send_char+0x3a>
 8de:	00 00       	nop
 8e0:	40 e0       	ldi	r20, 0x00	; 0
 8e2:	6d 2f       	mov	r22, r29
 8e4:	8c 2f       	mov	r24, r28
 8e6:	0e 94 d5 01 	call	0x3aa	; 0x3aa <DIO_write_bit>
 8ea:	89 ef       	ldi	r24, 0xF9	; 249
 8ec:	90 e0       	ldi	r25, 0x00	; 0
 8ee:	01 97       	sbiw	r24, 0x01	; 1
 8f0:	f1 f7       	brne	.-4      	; 0x8ee <LCD_send_char+0x4a>
 8f2:	00 c0       	rjmp	.+0      	; 0x8f4 <LCD_send_char+0x50>
 8f4:	00 00       	nop
 8f6:	df 91       	pop	r29
 8f8:	cf 91       	pop	r28
 8fa:	1f 91       	pop	r17
 8fc:	0f 91       	pop	r16
 8fe:	ff 90       	pop	r15
 900:	ef 90       	pop	r14
 902:	08 95       	ret

Disassembly of section .text.LCD_send_cmd:

00000904 <LCD_send_cmd>:
 904:	ef 92       	push	r14
 906:	ff 92       	push	r15
 908:	0f 93       	push	r16
 90a:	1f 93       	push	r17
 90c:	cf 93       	push	r28
 90e:	df 93       	push	r29
 910:	f8 2e       	mov	r15, r24
 912:	16 2f       	mov	r17, r22
 914:	c4 2f       	mov	r28, r20
 916:	d2 2f       	mov	r29, r18
 918:	80 2f       	mov	r24, r16
 91a:	6e 2d       	mov	r22, r14
 91c:	40 e0       	ldi	r20, 0x00	; 0
 91e:	0e 94 d5 01 	call	0x3aa	; 0x3aa <DIO_write_bit>
 922:	6f 2d       	mov	r22, r15
 924:	81 2f       	mov	r24, r17
 926:	0e 94 7c 05 	call	0xaf8	; 0xaf8 <DIO_write_port>
 92a:	41 e0       	ldi	r20, 0x01	; 1
 92c:	6d 2f       	mov	r22, r29
 92e:	8c 2f       	mov	r24, r28
 930:	0e 94 d5 01 	call	0x3aa	; 0x3aa <DIO_write_bit>
 934:	89 ef       	ldi	r24, 0xF9	; 249
 936:	90 e0       	ldi	r25, 0x00	; 0
 938:	01 97       	sbiw	r24, 0x01	; 1
 93a:	f1 f7       	brne	.-4      	; 0x938 <LCD_send_cmd+0x34>
 93c:	00 c0       	rjmp	.+0      	; 0x93e <LCD_send_cmd+0x3a>
 93e:	00 00       	nop
 940:	40 e0       	ldi	r20, 0x00	; 0
 942:	6d 2f       	mov	r22, r29
 944:	8c 2f       	mov	r24, r28
 946:	0e 94 d5 01 	call	0x3aa	; 0x3aa <DIO_write_bit>
 94a:	87 eb       	ldi	r24, 0xB7	; 183
 94c:	9b e0       	ldi	r25, 0x0B	; 11
 94e:	01 97       	sbiw	r24, 0x01	; 1
 950:	f1 f7       	brne	.-4      	; 0x94e <LCD_send_cmd+0x4a>
 952:	00 c0       	rjmp	.+0      	; 0x954 <LCD_send_cmd+0x50>
 954:	00 00       	nop
 956:	df 91       	pop	r29
 958:	cf 91       	pop	r28
 95a:	1f 91       	pop	r17
 95c:	0f 91       	pop	r16
 95e:	ff 90       	pop	r15
 960:	ef 90       	pop	r14
 962:	08 95       	ret

Disassembly of section .text.LCD_inatialize:

0000062c <LCD_inatialize>:
 62c:	df 92       	push	r13
 62e:	ef 92       	push	r14
 630:	ff 92       	push	r15
 632:	0f 93       	push	r16
 634:	1f 93       	push	r17
 636:	cf 93       	push	r28
 638:	df 93       	push	r29
 63a:	c8 2f       	mov	r28, r24
 63c:	d6 2f       	mov	r29, r22
 63e:	14 2f       	mov	r17, r20
 640:	f2 2e       	mov	r15, r18
 642:	6f ef       	ldi	r22, 0xFF	; 255
 644:	0e 94 69 05 	call	0xad2	; 0xad2 <DIO_set_dir>
 648:	41 e0       	ldi	r20, 0x01	; 1
 64a:	60 2f       	mov	r22, r16
 64c:	8f 2d       	mov	r24, r15
 64e:	0e 94 65 01 	call	0x2ca	; 0x2ca <DIO_set_bit_dir>
 652:	41 e0       	ldi	r20, 0x01	; 1
 654:	61 2f       	mov	r22, r17
 656:	8d 2f       	mov	r24, r29
 658:	0e 94 65 01 	call	0x2ca	; 0x2ca <DIO_set_bit_dir>
 65c:	8f e4       	ldi	r24, 0x4F	; 79
 65e:	93 ec       	ldi	r25, 0xC3	; 195
 660:	01 97       	sbiw	r24, 0x01	; 1
 662:	f1 f7       	brne	.-4      	; 0x660 <LCD_inatialize+0x34>
 664:	00 c0       	rjmp	.+0      	; 0x666 <LCD_inatialize+0x3a>
 666:	00 00       	nop
 668:	e0 2e       	mov	r14, r16
 66a:	0f 2d       	mov	r16, r15
 66c:	21 2f       	mov	r18, r17
 66e:	4d 2f       	mov	r20, r29
 670:	6c 2f       	mov	r22, r28
 672:	88 e3       	ldi	r24, 0x38	; 56
 674:	0e 94 82 04 	call	0x904	; 0x904 <LCD_send_cmd>
 678:	89 ef       	ldi	r24, 0xF9	; 249
 67a:	90 e0       	ldi	r25, 0x00	; 0
 67c:	01 97       	sbiw	r24, 0x01	; 1
 67e:	f1 f7       	brne	.-4      	; 0x67c <LCD_inatialize+0x50>
 680:	00 c0       	rjmp	.+0      	; 0x682 <LCD_inatialize+0x56>
 682:	00 00       	nop
 684:	21 2f       	mov	r18, r17
 686:	4d 2f       	mov	r20, r29
 688:	6c 2f       	mov	r22, r28
 68a:	8e e0       	ldi	r24, 0x0E	; 14
 68c:	0e 94 82 04 	call	0x904	; 0x904 <LCD_send_cmd>
 690:	89 ef       	ldi	r24, 0xF9	; 249
 692:	90 e0       	ldi	r25, 0x00	; 0
 694:	01 97       	sbiw	r24, 0x01	; 1
 696:	f1 f7       	brne	.-4      	; 0x694 <LCD_inatialize+0x68>
 698:	00 c0       	rjmp	.+0      	; 0x69a <LCD_inatialize+0x6e>
 69a:	00 00       	nop
 69c:	21 2f       	mov	r18, r17
 69e:	4d 2f       	mov	r20, r29
 6a0:	6c 2f       	mov	r22, r28
 6a2:	81 e0       	ldi	r24, 0x01	; 1
 6a4:	0e 94 82 04 	call	0x904	; 0x904 <LCD_send_cmd>
 6a8:	83 ec       	ldi	r24, 0xC3	; 195
 6aa:	99 e0       	ldi	r25, 0x09	; 9
 6ac:	01 97       	sbiw	r24, 0x01	; 1
 6ae:	f1 f7       	brne	.-4      	; 0x6ac <LCD_inatialize+0x80>
 6b0:	00 c0       	rjmp	.+0      	; 0x6b2 <LCD_inatialize+0x86>
 6b2:	00 00       	nop
 6b4:	21 2f       	mov	r18, r17
 6b6:	4d 2f       	mov	r20, r29
 6b8:	6c 2f       	mov	r22, r28
 6ba:	86 e0       	ldi	r24, 0x06	; 6
 6bc:	0e 94 82 04 	call	0x904	; 0x904 <LCD_send_cmd>
 6c0:	89 ef       	ldi	r24, 0xF9	; 249
 6c2:	90 e0       	ldi	r25, 0x00	; 0
 6c4:	01 97       	sbiw	r24, 0x01	; 1
 6c6:	f1 f7       	brne	.-4      	; 0x6c4 <LCD_inatialize+0x98>
 6c8:	00 c0       	rjmp	.+0      	; 0x6ca <LCD_inatialize+0x9e>
 6ca:	00 00       	nop
 6cc:	df 91       	pop	r29
 6ce:	cf 91       	pop	r28
 6d0:	1f 91       	pop	r17
 6d2:	0f 91       	pop	r16
 6d4:	ff 90       	pop	r15
 6d6:	ef 90       	pop	r14
 6d8:	df 90       	pop	r13
 6da:	08 95       	ret

Disassembly of section .text.LCD_send_Snum:

000006dc <LCD_send_Snum>:
 6dc:	af 92       	push	r10
 6de:	bf 92       	push	r11
 6e0:	cf 92       	push	r12
 6e2:	df 92       	push	r13
 6e4:	ef 92       	push	r14
 6e6:	ff 92       	push	r15
 6e8:	0f 93       	push	r16
 6ea:	1f 93       	push	r17
 6ec:	cf 93       	push	r28
 6ee:	df 93       	push	r29
 6f0:	cd b7       	in	r28, 0x3d	; 61
 6f2:	de b7       	in	r29, 0x3e	; 62
 6f4:	2f 97       	sbiw	r28, 0x0f	; 15
 6f6:	0f b6       	in	r0, 0x3f	; 63
 6f8:	f8 94       	cli
 6fa:	de bf       	out	0x3e, r29	; 62
 6fc:	0f be       	out	0x3f, r0	; 63
 6fe:	cd bf       	out	0x3d, r28	; 61
 700:	a4 2e       	mov	r10, r20
 702:	b2 2e       	mov	r11, r18
 704:	d0 2e       	mov	r13, r16
 706:	fe 2c       	mov	r15, r14
 708:	10 e0       	ldi	r17, 0x00	; 0
 70a:	2a e0       	ldi	r18, 0x0A	; 10
 70c:	30 e0       	ldi	r19, 0x00	; 0
 70e:	40 e0       	ldi	r20, 0x00	; 0
 710:	50 e0       	ldi	r21, 0x00	; 0
 712:	0e 94 52 05 	call	0xaa4	; 0xaa4 <__divmodsi4>
 716:	e1 e0       	ldi	r30, 0x01	; 1
 718:	f0 e0       	ldi	r31, 0x00	; 0
 71a:	ec 0f       	add	r30, r28
 71c:	fd 1f       	adc	r31, r29
 71e:	e1 0f       	add	r30, r17
 720:	f1 1d       	adc	r31, r1
 722:	17 fd       	sbrc	r17, 7
 724:	fa 95       	dec	r31
 726:	60 83       	st	Z, r22
 728:	62 2f       	mov	r22, r18
 72a:	73 2f       	mov	r23, r19
 72c:	84 2f       	mov	r24, r20
 72e:	95 2f       	mov	r25, r21
 730:	61 15       	cp	r22, r1
 732:	71 05       	cpc	r23, r1
 734:	81 05       	cpc	r24, r1
 736:	91 05       	cpc	r25, r1
 738:	a1 f0       	breq	.+40     	; 0x762 <LCD_send_Snum+0x86>
 73a:	1f 5f       	subi	r17, 0xFF	; 255
 73c:	e6 cf       	rjmp	.-52     	; 0x70a <LCD_send_Snum+0x2e>
 73e:	e1 e0       	ldi	r30, 0x01	; 1
 740:	f0 e0       	ldi	r31, 0x00	; 0
 742:	ec 0f       	add	r30, r28
 744:	fd 1f       	adc	r31, r29
 746:	e1 0f       	add	r30, r17
 748:	f1 1d       	adc	r31, r1
 74a:	17 fd       	sbrc	r17, 7
 74c:	fa 95       	dec	r31
 74e:	80 81       	ld	r24, Z
 750:	ec 2c       	mov	r14, r12
 752:	0f 2d       	mov	r16, r15
 754:	2d 2d       	mov	r18, r13
 756:	4b 2d       	mov	r20, r11
 758:	6a 2d       	mov	r22, r10
 75a:	80 5d       	subi	r24, 0xD0	; 208
 75c:	0e 94 52 04 	call	0x8a4	; 0x8a4 <LCD_send_char>
 760:	11 50       	subi	r17, 0x01	; 1
 762:	11 23       	and	r17, r17
 764:	64 f7       	brge	.-40     	; 0x73e <LCD_send_Snum+0x62>
 766:	2f 96       	adiw	r28, 0x0f	; 15
 768:	0f b6       	in	r0, 0x3f	; 63
 76a:	f8 94       	cli
 76c:	de bf       	out	0x3e, r29	; 62
 76e:	0f be       	out	0x3f, r0	; 63
 770:	cd bf       	out	0x3d, r28	; 61
 772:	df 91       	pop	r29
 774:	cf 91       	pop	r28
 776:	1f 91       	pop	r17
 778:	0f 91       	pop	r16
 77a:	ff 90       	pop	r15
 77c:	ef 90       	pop	r14
 77e:	df 90       	pop	r13
 780:	cf 90       	pop	r12
 782:	bf 90       	pop	r11
 784:	af 90       	pop	r10
 786:	08 95       	ret

Disassembly of section .text.LCD_move_cursor:

000009c2 <LCD_move_cursor>:
 9c2:	cf 92       	push	r12
 9c4:	ef 92       	push	r14
 9c6:	0f 93       	push	r16
 9c8:	94 2f       	mov	r25, r20
 9ca:	42 2f       	mov	r20, r18
 9cc:	20 2f       	mov	r18, r16
 9ce:	0e 2d       	mov	r16, r14
 9d0:	ec 2c       	mov	r14, r12
 9d2:	3f ef       	ldi	r19, 0xFF	; 255
 9d4:	38 0f       	add	r19, r24
 9d6:	32 30       	cpi	r19, 0x02	; 2
 9d8:	70 f4       	brcc	.+28     	; 0x9f6 <LCD_move_cursor+0x34>
 9da:	61 31       	cpi	r22, 0x11	; 17
 9dc:	70 f4       	brcc	.+28     	; 0x9fa <LCD_move_cursor+0x38>
 9de:	66 23       	and	r22, r22
 9e0:	71 f0       	breq	.+28     	; 0x9fe <LCD_move_cursor+0x3c>
 9e2:	81 30       	cpi	r24, 0x01	; 1
 9e4:	19 f4       	brne	.+6      	; 0x9ec <LCD_move_cursor+0x2a>
 9e6:	5f e7       	ldi	r21, 0x7F	; 127
 9e8:	56 0f       	add	r21, r22
 9ea:	0a c0       	rjmp	.+20     	; 0xa00 <LCD_move_cursor+0x3e>
 9ec:	82 30       	cpi	r24, 0x02	; 2
 9ee:	41 f4       	brne	.+16     	; 0xa00 <LCD_move_cursor+0x3e>
 9f0:	5f eb       	ldi	r21, 0xBF	; 191
 9f2:	56 0f       	add	r21, r22
 9f4:	05 c0       	rjmp	.+10     	; 0xa00 <LCD_move_cursor+0x3e>
 9f6:	50 e8       	ldi	r21, 0x80	; 128
 9f8:	03 c0       	rjmp	.+6      	; 0xa00 <LCD_move_cursor+0x3e>
 9fa:	50 e8       	ldi	r21, 0x80	; 128
 9fc:	01 c0       	rjmp	.+2      	; 0xa00 <LCD_move_cursor+0x3e>
 9fe:	50 e8       	ldi	r21, 0x80	; 128
 a00:	69 2f       	mov	r22, r25
 a02:	85 2f       	mov	r24, r21
 a04:	0e 94 82 04 	call	0x904	; 0x904 <LCD_send_cmd>
	#else
		//round up by default
		__ticks_dc = (uint32_t)(ceil(fabs(__tmp)));
	#endif

	__builtin_avr_delay_cycles(__ticks_dc);
 a08:	89 ef       	ldi	r24, 0xF9	; 249
 a0a:	90 e0       	ldi	r25, 0x00	; 0
 a0c:	01 97       	sbiw	r24, 0x01	; 1
 a0e:	f1 f7       	brne	.-4      	; 0xa0c <LCD_move_cursor+0x4a>
 a10:	00 c0       	rjmp	.+0      	; 0xa12 <LCD_move_cursor+0x50>
 a12:	00 00       	nop
 a14:	0f 91       	pop	r16
 a16:	ef 90       	pop	r14
 a18:	cf 90       	pop	r12
 a1a:	08 95       	ret

Disassembly of section .text.LCD_send_string:

00000788 <LCD_send_string>:
 788:	6f 92       	push	r6
 78a:	7f 92       	push	r7
 78c:	8f 92       	push	r8
 78e:	af 92       	push	r10
 790:	bf 92       	push	r11
 792:	cf 92       	push	r12
 794:	df 92       	push	r13
 796:	ef 92       	push	r14
 798:	ff 92       	push	r15
 79a:	0f 93       	push	r16
 79c:	1f 93       	push	r17
 79e:	cf 93       	push	r28
 7a0:	df 93       	push	r29
 7a2:	3b 01       	movw	r6, r22
 7a4:	88 2e       	mov	r8, r24
 7a6:	a4 2e       	mov	r10, r20
 7a8:	b2 2e       	mov	r11, r18
 7aa:	d0 2e       	mov	r13, r16
 7ac:	fe 2c       	mov	r15, r14
 7ae:	1c 2d       	mov	r17, r12
 7b0:	c0 e0       	ldi	r28, 0x00	; 0
 7b2:	d0 e0       	ldi	r29, 0x00	; 0
 7b4:	22 c0       	rjmp	.+68     	; 0x7fa <LCD_send_string+0x72>
 7b6:	c0 31       	cpi	r28, 0x10	; 16
 7b8:	d1 05       	cpc	r29, r1
 7ba:	49 f4       	brne	.+18     	; 0x7ce <LCD_send_string+0x46>
 7bc:	c1 2e       	mov	r12, r17
 7be:	ef 2c       	mov	r14, r15
 7c0:	0d 2d       	mov	r16, r13
 7c2:	2b 2d       	mov	r18, r11
 7c4:	4a 2d       	mov	r20, r10
 7c6:	61 e0       	ldi	r22, 0x01	; 1
 7c8:	82 e0       	ldi	r24, 0x02	; 2
 7ca:	0e 94 e1 04 	call	0x9c2	; 0x9c2 <LCD_move_cursor>
 7ce:	e1 2e       	mov	r14, r17
 7d0:	0f 2d       	mov	r16, r15
 7d2:	2d 2d       	mov	r18, r13
 7d4:	4b 2d       	mov	r20, r11
 7d6:	6a 2d       	mov	r22, r10
 7d8:	f3 01       	movw	r30, r6
 7da:	84 91       	lpm	r24, Z
 7dc:	87 fc       	sbrc	r8, 7
 7de:	80 81       	ld	r24, Z
 7e0:	0e 94 52 04 	call	0x8a4	; 0x8a4 <LCD_send_char>
 7e4:	8f e4       	ldi	r24, 0x4F	; 79
 7e6:	93 ec       	ldi	r25, 0xC3	; 195
 7e8:	01 97       	sbiw	r24, 0x01	; 1
 7ea:	f1 f7       	brne	.-4      	; 0x7e8 <LCD_send_string+0x60>
 7ec:	00 c0       	rjmp	.+0      	; 0x7ee <LCD_send_string+0x66>
 7ee:	00 00       	nop
 7f0:	9f ef       	ldi	r25, 0xFF	; 255
 7f2:	69 1a       	sub	r6, r25
 7f4:	79 0a       	sbc	r7, r25
 7f6:	89 0a       	sbc	r8, r25
 7f8:	21 96       	adiw	r28, 0x01	; 1
 7fa:	f3 01       	movw	r30, r6
 7fc:	84 91       	lpm	r24, Z
 7fe:	87 fc       	sbrc	r8, 7
 800:	80 81       	ld	r24, Z
 802:	81 11       	cpse	r24, r1
 804:	d8 cf       	rjmp	.-80     	; 0x7b6 <LCD_send_string+0x2e>
 806:	89 ef       	ldi	r24, 0xF9	; 249
 808:	90 e0       	ldi	r25, 0x00	; 0
 80a:	01 97       	sbiw	r24, 0x01	; 1
 80c:	f1 f7       	brne	.-4      	; 0x80a <LCD_send_string+0x82>
 80e:	00 c0       	rjmp	.+0      	; 0x810 <LCD_send_string+0x88>
 810:	00 00       	nop
 812:	df 91       	pop	r29
 814:	cf 91       	pop	r28
 816:	1f 91       	pop	r17
 818:	0f 91       	pop	r16
 81a:	ff 90       	pop	r15
 81c:	ef 90       	pop	r14
 81e:	df 90       	pop	r13
 820:	cf 90       	pop	r12
 822:	bf 90       	pop	r11
 824:	af 90       	pop	r10
 826:	8f 90       	pop	r8
 828:	7f 90       	pop	r7
 82a:	6f 90       	pop	r6
 82c:	08 95       	ret

Disassembly of section .text.main:

000001d4 <main>:
 1d4:	01 e0       	ldi	r16, 0x01	; 1
 1d6:	22 e6       	ldi	r18, 0x62	; 98
 1d8:	40 e0       	ldi	r20, 0x00	; 0
 1da:	62 e6       	ldi	r22, 0x62	; 98
 1dc:	81 e6       	ldi	r24, 0x61	; 97
 1de:	0e 94 16 03 	call	0x62c	; 0x62c <LCD_inatialize>
 1e2:	cc 24       	eor	r12, r12
 1e4:	c3 94       	inc	r12
 1e6:	0f 2e       	mov	r0, r31
 1e8:	f2 e6       	ldi	r31, 0x62	; 98
 1ea:	ef 2e       	mov	r14, r31
 1ec:	f0 2d       	mov	r31, r0
 1ee:	00 e0       	ldi	r16, 0x00	; 0
 1f0:	22 e6       	ldi	r18, 0x62	; 98
 1f2:	41 e6       	ldi	r20, 0x61	; 97
 1f4:	68 ec       	ldi	r22, 0xC8	; 200
 1f6:	71 e0       	ldi	r23, 0x01	; 1
 1f8:	80 e0       	ldi	r24, 0x00	; 0
 1fa:	0e 94 c4 03 	call	0x788	; 0x788 <LCD_send_string>
 1fe:	60 e0       	ldi	r22, 0x00	; 0
 200:	70 e0       	ldi	r23, 0x00	; 0
 202:	80 ef       	ldi	r24, 0xF0	; 240
 204:	91 e4       	ldi	r25, 0x41	; 65
 206:	0e 94 a0 05 	call	0xb40	; 0xb40 <Servo_motor_angle>
 20a:	cc 24       	eor	r12, r12
 20c:	c3 94       	inc	r12
 20e:	0f 2e       	mov	r0, r31
 210:	f2 e6       	ldi	r31, 0x62	; 98
 212:	ef 2e       	mov	r14, r31
 214:	f0 2d       	mov	r31, r0
 216:	00 e0       	ldi	r16, 0x00	; 0
 218:	22 e6       	ldi	r18, 0x62	; 98
 21a:	41 e6       	ldi	r20, 0x61	; 97
 21c:	68 e0       	ldi	r22, 0x08	; 8
 21e:	81 e0       	ldi	r24, 0x01	; 1
 220:	0e 94 e1 04 	call	0x9c2	; 0x9c2 <LCD_move_cursor>
 224:	22 e6       	ldi	r18, 0x62	; 98
 226:	41 e6       	ldi	r20, 0x61	; 97
 228:	6e e1       	ldi	r22, 0x1E	; 30
 22a:	70 e0       	ldi	r23, 0x00	; 0
 22c:	80 e0       	ldi	r24, 0x00	; 0
 22e:	90 e0       	ldi	r25, 0x00	; 0
 230:	0e 94 6e 03 	call	0x6dc	; 0x6dc <LCD_send_Snum>
 234:	2f e3       	ldi	r18, 0x3F	; 63
 236:	82 e4       	ldi	r24, 0x42	; 66
 238:	9f e0       	ldi	r25, 0x0F	; 15
 23a:	21 50       	subi	r18, 0x01	; 1
 23c:	80 40       	sbci	r24, 0x00	; 0
 23e:	90 40       	sbci	r25, 0x00	; 0
 240:	e1 f7       	brne	.-8      	; 0x23a <__EEPROM_REGION_LENGTH__+0x3a>
 242:	00 c0       	rjmp	.+0      	; 0x244 <__EEPROM_REGION_LENGTH__+0x44>
 244:	00 00       	nop
 246:	60 e0       	ldi	r22, 0x00	; 0
 248:	70 e0       	ldi	r23, 0x00	; 0
 24a:	80 ef       	ldi	r24, 0xF0	; 240
 24c:	91 ec       	ldi	r25, 0xC1	; 193
 24e:	0e 94 a0 05 	call	0xb40	; 0xb40 <Servo_motor_angle>
 252:	22 e6       	ldi	r18, 0x62	; 98
 254:	41 e6       	ldi	r20, 0x61	; 97
 256:	68 e0       	ldi	r22, 0x08	; 8
 258:	81 e0       	ldi	r24, 0x01	; 1
 25a:	0e 94 e1 04 	call	0x9c2	; 0x9c2 <LCD_move_cursor>
 25e:	22 e6       	ldi	r18, 0x62	; 98
 260:	41 e6       	ldi	r20, 0x61	; 97
 262:	61 ed       	ldi	r22, 0xD1	; 209
 264:	71 e0       	ldi	r23, 0x01	; 1
 266:	80 e0       	ldi	r24, 0x00	; 0
 268:	0e 94 c4 03 	call	0x788	; 0x788 <LCD_send_string>
 26c:	22 e6       	ldi	r18, 0x62	; 98
 26e:	41 e6       	ldi	r20, 0x61	; 97
 270:	6e e1       	ldi	r22, 0x1E	; 30
 272:	70 e0       	ldi	r23, 0x00	; 0
 274:	80 e0       	ldi	r24, 0x00	; 0
 276:	90 e0       	ldi	r25, 0x00	; 0
 278:	0e 94 6e 03 	call	0x6dc	; 0x6dc <LCD_send_Snum>
 27c:	2f e3       	ldi	r18, 0x3F	; 63
 27e:	82 e4       	ldi	r24, 0x42	; 66
 280:	9f e0       	ldi	r25, 0x0F	; 15
 282:	21 50       	subi	r18, 0x01	; 1
 284:	80 40       	sbci	r24, 0x00	; 0
 286:	90 40       	sbci	r25, 0x00	; 0
 288:	e1 f7       	brne	.-8      	; 0x282 <__EEPROM_REGION_LENGTH__+0x82>
 28a:	00 c0       	rjmp	.+0      	; 0x28c <__EEPROM_REGION_LENGTH__+0x8c>
 28c:	00 00       	nop
 28e:	60 e0       	ldi	r22, 0x00	; 0
 290:	70 e0       	ldi	r23, 0x00	; 0
 292:	88 e4       	ldi	r24, 0x48	; 72
 294:	92 e4       	ldi	r25, 0x42	; 66
 296:	0e 94 a0 05 	call	0xb40	; 0xb40 <Servo_motor_angle>
 29a:	22 e6       	ldi	r18, 0x62	; 98
 29c:	41 e6       	ldi	r20, 0x61	; 97
 29e:	68 e0       	ldi	r22, 0x08	; 8
 2a0:	81 e0       	ldi	r24, 0x01	; 1
 2a2:	0e 94 e1 04 	call	0x9c2	; 0x9c2 <LCD_move_cursor>
 2a6:	22 e6       	ldi	r18, 0x62	; 98
 2a8:	41 e6       	ldi	r20, 0x61	; 97
 2aa:	62 e3       	ldi	r22, 0x32	; 50
 2ac:	70 e0       	ldi	r23, 0x00	; 0
 2ae:	80 e0       	ldi	r24, 0x00	; 0
 2b0:	90 e0       	ldi	r25, 0x00	; 0
 2b2:	0e 94 6e 03 	call	0x6dc	; 0x6dc <LCD_send_Snum>
 2b6:	2f e3       	ldi	r18, 0x3F	; 63
 2b8:	82 e4       	ldi	r24, 0x42	; 66
 2ba:	9f e0       	ldi	r25, 0x0F	; 15
 2bc:	21 50       	subi	r18, 0x01	; 1
 2be:	80 40       	sbci	r24, 0x00	; 0
 2c0:	90 40       	sbci	r25, 0x00	; 0
 2c2:	e1 f7       	brne	.-8      	; 0x2bc <__EEPROM_REGION_LENGTH__+0xbc>
 2c4:	00 c0       	rjmp	.+0      	; 0x2c6 <__EEPROM_REGION_LENGTH__+0xc6>
 2c6:	00 00       	nop
 2c8:	9a cf       	rjmp	.-204    	; 0x1fe <main+0x2a>

Disassembly of section .text.Servo_motor_angle:

00000b40 <Servo_motor_angle>:
 b40:	21 e6       	ldi	r18, 0x61	; 97
 b42:	3b e0       	ldi	r19, 0x0B	; 11
 b44:	46 eb       	ldi	r20, 0xB6	; 182
 b46:	5b e3       	ldi	r21, 0x3B	; 59
 b48:	0e 94 df 05 	call	0xbbe	; 0xbbe <__mulsf3>
 b4c:	20 e0       	ldi	r18, 0x00	; 0
 b4e:	30 e0       	ldi	r19, 0x00	; 0
 b50:	40 ec       	ldi	r20, 0xC0	; 192
 b52:	5f e3       	ldi	r21, 0x3F	; 63
 b54:	0e 94 b8 05 	call	0xb70	; 0xb70 <__addsf3>
 b58:	0e 94 17 04 	call	0x82e	; 0x82e <Timer1_wave_fast_PWM>
 b5c:	08 95       	ret

Disassembly of section .text.Timer1_wave_fast_PWM:

0000082e <Timer1_wave_fast_PWM>:
 82e:	cf 92       	push	r12
 830:	df 92       	push	r13
 832:	ef 92       	push	r14
 834:	ff 92       	push	r15
 836:	6b 01       	movw	r12, r22
 838:	7c 01       	movw	r14, r24
 83a:	41 e0       	ldi	r20, 0x01	; 1
 83c:	65 e0       	ldi	r22, 0x05	; 5
 83e:	84 e6       	ldi	r24, 0x64	; 100
 840:	0e 94 65 01 	call	0x2ca	; 0x2ca <DIO_set_bit_dir>
 844:	8f b5       	in	r24, 0x2f	; 47
 846:	8e 7f       	andi	r24, 0xFE	; 254
 848:	8f bd       	out	0x2f, r24	; 47
 84a:	8f b5       	in	r24, 0x2f	; 47
 84c:	82 60       	ori	r24, 0x02	; 2
 84e:	8f bd       	out	0x2f, r24	; 47
 850:	8e b5       	in	r24, 0x2e	; 46
 852:	88 60       	ori	r24, 0x08	; 8
 854:	8e bd       	out	0x2e, r24	; 46
 856:	8e b5       	in	r24, 0x2e	; 46
 858:	80 61       	ori	r24, 0x10	; 16
 85a:	8e bd       	out	0x2e, r24	; 46
 85c:	8f b5       	in	r24, 0x2f	; 47
 85e:	8f 7b       	andi	r24, 0xBF	; 191
 860:	8f bd       	out	0x2f, r24	; 47
 862:	8f b5       	in	r24, 0x2f	; 47
 864:	80 68       	ori	r24, 0x80	; 128
 866:	8f bd       	out	0x2f, r24	; 47
 868:	20 e0       	ldi	r18, 0x00	; 0
 86a:	30 e0       	ldi	r19, 0x00	; 0
 86c:	4a e7       	ldi	r20, 0x7A	; 122
 86e:	54 e4       	ldi	r21, 0x44	; 68
 870:	c7 01       	movw	r24, r14
 872:	b6 01       	movw	r22, r12
 874:	0e 94 df 05 	call	0xbbe	; 0xbbe <__mulsf3>
 878:	0e 94 b2 04 	call	0x964	; 0x964 <__fixunssfsi>
 87c:	7b bd       	out	0x2b, r23	; 43
 87e:	6a bd       	out	0x2a, r22	; 42
 880:	8f e1       	ldi	r24, 0x1F	; 31
 882:	9e e4       	ldi	r25, 0x4E	; 78
 884:	97 bd       	out	0x27, r25	; 39
 886:	86 bd       	out	0x26, r24	; 38
 888:	8e b5       	in	r24, 0x2e	; 46
 88a:	8e 7f       	andi	r24, 0xFE	; 254
 88c:	8e bd       	out	0x2e, r24	; 46
 88e:	8e b5       	in	r24, 0x2e	; 46
 890:	82 60       	ori	r24, 0x02	; 2
 892:	8e bd       	out	0x2e, r24	; 46
 894:	8e b5       	in	r24, 0x2e	; 46
 896:	8b 7f       	andi	r24, 0xFB	; 251
 898:	8e bd       	out	0x2e, r24	; 46
 89a:	ff 90       	pop	r15
 89c:	ef 90       	pop	r14
 89e:	df 90       	pop	r13
 8a0:	cf 90       	pop	r12
 8a2:	08 95       	ret

Disassembly of section .text.avrlibc.fplib:

00000b6e <__subsf3>:
 b6e:	50 58       	subi	r21, 0x80	; 128

00000b70 <__addsf3>:
 b70:	bb 27       	eor	r27, r27
 b72:	aa 27       	eor	r26, r26
 b74:	0e 94 af 02 	call	0x55e	; 0x55e <__addsf3x>
 b78:	0c 94 8f 05 	jmp	0xb1e	; 0xb1e <__fp_round>

Disassembly of section .text.avrlibc.fplib:

0000055e <__addsf3x>:
 55e:	11 c0       	rjmp	.+34     	; 0x582 <__addsf3x+0x24>
 560:	0e 94 be 05 	call	0xb7c	; 0xb7c <__fp_pscA>
 564:	38 f0       	brcs	.+14     	; 0x574 <__addsf3x+0x16>
 566:	0e 94 c5 05 	call	0xb8a	; 0xb8a <__fp_pscB>
 56a:	20 f0       	brcs	.+8      	; 0x574 <__addsf3x+0x16>
 56c:	39 f4       	brne	.+14     	; 0x57c <__addsf3x+0x1e>
 56e:	9f 3f       	cpi	r25, 0xFF	; 255
 570:	19 f4       	brne	.+6      	; 0x578 <__addsf3x+0x1a>
 572:	26 f4       	brtc	.+8      	; 0x57c <__addsf3x+0x1e>
 574:	0c 94 e3 05 	jmp	0xbc6	; 0xbc6 <__fp_nan>
 578:	0e f4       	brtc	.+2      	; 0x57c <__addsf3x+0x1e>
 57a:	e0 95       	com	r30
 57c:	e7 fb       	bst	r30, 7
 57e:	0c 94 d3 05 	jmp	0xba6	; 0xba6 <__fp_inf>
 582:	e9 2f       	mov	r30, r25
 584:	0e 94 0e 05 	call	0xa1c	; 0xa1c <__fp_split3>
 588:	58 f3       	brcs	.-42     	; 0x560 <__addsf3x+0x2>
 58a:	ba 17       	cp	r27, r26
 58c:	62 07       	cpc	r22, r18
 58e:	73 07       	cpc	r23, r19
 590:	84 07       	cpc	r24, r20
 592:	95 07       	cpc	r25, r21
 594:	20 f0       	brcs	.+8      	; 0x59e <__addsf3x+0x40>
 596:	79 f4       	brne	.+30     	; 0x5b6 <__addsf3x+0x58>
 598:	a6 f5       	brtc	.+104    	; 0x602 <__addsf3x+0xa4>
 59a:	0c 94 cc 05 	jmp	0xb98	; 0xb98 <__fp_zero>
 59e:	0e f4       	brtc	.+2      	; 0x5a2 <__addsf3x+0x44>
 5a0:	e0 95       	com	r30
 5a2:	0b 2e       	mov	r0, r27
 5a4:	ba 2f       	mov	r27, r26
 5a6:	a0 2d       	mov	r26, r0
 5a8:	0b 01       	movw	r0, r22
 5aa:	b9 01       	movw	r22, r18
 5ac:	90 01       	movw	r18, r0
 5ae:	0c 01       	movw	r0, r24
 5b0:	ca 01       	movw	r24, r20
 5b2:	a0 01       	movw	r20, r0
 5b4:	11 24       	eor	r1, r1
 5b6:	ff 27       	eor	r31, r31
 5b8:	59 1b       	sub	r21, r25
 5ba:	99 f0       	breq	.+38     	; 0x5e2 <__addsf3x+0x84>
 5bc:	59 3f       	cpi	r21, 0xF9	; 249
 5be:	50 f4       	brcc	.+20     	; 0x5d4 <__addsf3x+0x76>
 5c0:	50 3e       	cpi	r21, 0xE0	; 224
 5c2:	68 f1       	brcs	.+90     	; 0x61e <__addsf3x+0xc0>
 5c4:	1a 16       	cp	r1, r26
 5c6:	f0 40       	sbci	r31, 0x00	; 0
 5c8:	a2 2f       	mov	r26, r18
 5ca:	23 2f       	mov	r18, r19
 5cc:	34 2f       	mov	r19, r20
 5ce:	44 27       	eor	r20, r20
 5d0:	58 5f       	subi	r21, 0xF8	; 248
 5d2:	f3 cf       	rjmp	.-26     	; 0x5ba <__addsf3x+0x5c>
 5d4:	46 95       	lsr	r20
 5d6:	37 95       	ror	r19
 5d8:	27 95       	ror	r18
 5da:	a7 95       	ror	r26
 5dc:	f0 40       	sbci	r31, 0x00	; 0
 5de:	53 95       	inc	r21
 5e0:	c9 f7       	brne	.-14     	; 0x5d4 <__addsf3x+0x76>
 5e2:	7e f4       	brtc	.+30     	; 0x602 <__addsf3x+0xa4>
 5e4:	1f 16       	cp	r1, r31
 5e6:	ba 0b       	sbc	r27, r26
 5e8:	62 0b       	sbc	r22, r18
 5ea:	73 0b       	sbc	r23, r19
 5ec:	84 0b       	sbc	r24, r20
 5ee:	ba f0       	brmi	.+46     	; 0x61e <__addsf3x+0xc0>
 5f0:	91 50       	subi	r25, 0x01	; 1
 5f2:	a1 f0       	breq	.+40     	; 0x61c <__addsf3x+0xbe>
 5f4:	ff 0f       	add	r31, r31
 5f6:	bb 1f       	adc	r27, r27
 5f8:	66 1f       	adc	r22, r22
 5fa:	77 1f       	adc	r23, r23
 5fc:	88 1f       	adc	r24, r24
 5fe:	c2 f7       	brpl	.-16     	; 0x5f0 <__addsf3x+0x92>
 600:	0e c0       	rjmp	.+28     	; 0x61e <__addsf3x+0xc0>
 602:	ba 0f       	add	r27, r26
 604:	62 1f       	adc	r22, r18
 606:	73 1f       	adc	r23, r19
 608:	84 1f       	adc	r24, r20
 60a:	48 f4       	brcc	.+18     	; 0x61e <__addsf3x+0xc0>
 60c:	87 95       	ror	r24
 60e:	77 95       	ror	r23
 610:	67 95       	ror	r22
 612:	b7 95       	ror	r27
 614:	f7 95       	ror	r31
 616:	9e 3f       	cpi	r25, 0xFE	; 254
 618:	08 f0       	brcs	.+2      	; 0x61c <__addsf3x+0xbe>
 61a:	b0 cf       	rjmp	.-160    	; 0x57c <__addsf3x+0x1e>
 61c:	93 95       	inc	r25
 61e:	88 0f       	add	r24, r24
 620:	08 f0       	brcs	.+2      	; 0x624 <__addsf3x+0xc6>
 622:	99 27       	eor	r25, r25
 624:	ee 0f       	add	r30, r30
 626:	97 95       	ror	r25
 628:	87 95       	ror	r24
 62a:	08 95       	ret

Disassembly of section .text.avrlibc.fplib:

00000964 <__fixunssfsi>:
 964:	0e 94 16 05 	call	0xa2c	; 0xa2c <__fp_splitA>
 968:	88 f0       	brcs	.+34     	; 0x98c <__fixunssfsi+0x28>
 96a:	9f 57       	subi	r25, 0x7F	; 127
 96c:	98 f0       	brcs	.+38     	; 0x994 <__fixunssfsi+0x30>
 96e:	b9 2f       	mov	r27, r25
 970:	99 27       	eor	r25, r25
 972:	b7 51       	subi	r27, 0x17	; 23
 974:	b0 f0       	brcs	.+44     	; 0x9a2 <__fixunssfsi+0x3e>
 976:	e1 f0       	breq	.+56     	; 0x9b0 <__fixunssfsi+0x4c>
 978:	66 0f       	add	r22, r22
 97a:	77 1f       	adc	r23, r23
 97c:	88 1f       	adc	r24, r24
 97e:	99 1f       	adc	r25, r25
 980:	1a f0       	brmi	.+6      	; 0x988 <__fixunssfsi+0x24>
 982:	ba 95       	dec	r27
 984:	c9 f7       	brne	.-14     	; 0x978 <__fixunssfsi+0x14>
 986:	14 c0       	rjmp	.+40     	; 0x9b0 <__fixunssfsi+0x4c>
 988:	b1 30       	cpi	r27, 0x01	; 1
 98a:	91 f0       	breq	.+36     	; 0x9b0 <__fixunssfsi+0x4c>
 98c:	0e 94 cc 05 	call	0xb98	; 0xb98 <__fp_zero>
 990:	b1 e0       	ldi	r27, 0x01	; 1
 992:	08 95       	ret
 994:	0c 94 cc 05 	jmp	0xb98	; 0xb98 <__fp_zero>
 998:	67 2f       	mov	r22, r23
 99a:	78 2f       	mov	r23, r24
 99c:	88 27       	eor	r24, r24
 99e:	b8 5f       	subi	r27, 0xF8	; 248
 9a0:	39 f0       	breq	.+14     	; 0x9b0 <__fixunssfsi+0x4c>
 9a2:	b9 3f       	cpi	r27, 0xF9	; 249
 9a4:	cc f3       	brlt	.-14     	; 0x998 <__fixunssfsi+0x34>
 9a6:	86 95       	lsr	r24
 9a8:	77 95       	ror	r23
 9aa:	67 95       	ror	r22
 9ac:	b3 95       	inc	r27
 9ae:	d9 f7       	brne	.-10     	; 0x9a6 <__fixunssfsi+0x42>
 9b0:	3e f4       	brtc	.+14     	; 0x9c0 <__fixunssfsi+0x5c>
 9b2:	90 95       	com	r25
 9b4:	80 95       	com	r24
 9b6:	70 95       	com	r23
 9b8:	61 95       	neg	r22
 9ba:	7f 4f       	sbci	r23, 0xFF	; 255
 9bc:	8f 4f       	sbci	r24, 0xFF	; 255
 9be:	9f 4f       	sbci	r25, 0xFF	; 255
 9c0:	08 95       	ret

Disassembly of section .text.avrlibc.fplib:

00000ba6 <__fp_inf>:
 ba6:	97 f9       	bld	r25, 7
 ba8:	9f 67       	ori	r25, 0x7F	; 127
 baa:	80 e8       	ldi	r24, 0x80	; 128
 bac:	70 e0       	ldi	r23, 0x00	; 0
 bae:	60 e0       	ldi	r22, 0x00	; 0
 bb0:	08 95       	ret

Disassembly of section .text.avrlibc.fplib:

00000bc6 <__fp_nan>:
 bc6:	9f ef       	ldi	r25, 0xFF	; 255
 bc8:	80 ec       	ldi	r24, 0xC0	; 192
 bca:	08 95       	ret

Disassembly of section .text.avrlibc.fplib:

00000b7c <__fp_pscA>:
 b7c:	00 24       	eor	r0, r0
 b7e:	0a 94       	dec	r0
 b80:	16 16       	cp	r1, r22
 b82:	17 06       	cpc	r1, r23
 b84:	18 06       	cpc	r1, r24
 b86:	09 06       	cpc	r0, r25
 b88:	08 95       	ret

Disassembly of section .text.avrlibc.fplib:

00000b8a <__fp_pscB>:
 b8a:	00 24       	eor	r0, r0
 b8c:	0a 94       	dec	r0
 b8e:	12 16       	cp	r1, r18
 b90:	13 06       	cpc	r1, r19
 b92:	14 06       	cpc	r1, r20
 b94:	05 06       	cpc	r0, r21
 b96:	08 95       	ret

Disassembly of section .text.avrlibc.fplib:

00000b1e <__fp_round>:
 b1e:	09 2e       	mov	r0, r25
 b20:	03 94       	inc	r0
 b22:	00 0c       	add	r0, r0
 b24:	11 f4       	brne	.+4      	; 0xb2a <__fp_round+0xc>
 b26:	88 23       	and	r24, r24
 b28:	52 f0       	brmi	.+20     	; 0xb3e <__fp_round+0x20>
 b2a:	bb 0f       	add	r27, r27
 b2c:	40 f4       	brcc	.+16     	; 0xb3e <__fp_round+0x20>
 b2e:	bf 2b       	or	r27, r31
 b30:	11 f4       	brne	.+4      	; 0xb36 <__fp_round+0x18>
 b32:	60 ff       	sbrs	r22, 0
 b34:	04 c0       	rjmp	.+8      	; 0xb3e <__fp_round+0x20>
 b36:	6f 5f       	subi	r22, 0xFF	; 255
 b38:	7f 4f       	sbci	r23, 0xFF	; 255
 b3a:	8f 4f       	sbci	r24, 0xFF	; 255
 b3c:	9f 4f       	sbci	r25, 0xFF	; 255
 b3e:	08 95       	ret

Disassembly of section .text.avrlibc.fplib:

00000a1c <__fp_split3>:
 a1c:	57 fd       	sbrc	r21, 7
 a1e:	90 58       	subi	r25, 0x80	; 128
 a20:	44 0f       	add	r20, r20
 a22:	55 1f       	adc	r21, r21
 a24:	59 f0       	breq	.+22     	; 0xa3c <__fp_splitA+0x10>
 a26:	5f 3f       	cpi	r21, 0xFF	; 255
 a28:	71 f0       	breq	.+28     	; 0xa46 <__fp_splitA+0x1a>
 a2a:	47 95       	ror	r20

00000a2c <__fp_splitA>:
 a2c:	88 0f       	add	r24, r24
 a2e:	97 fb       	bst	r25, 7
 a30:	99 1f       	adc	r25, r25
 a32:	61 f0       	breq	.+24     	; 0xa4c <__fp_splitA+0x20>
 a34:	9f 3f       	cpi	r25, 0xFF	; 255
 a36:	79 f0       	breq	.+30     	; 0xa56 <__fp_splitA+0x2a>
 a38:	87 95       	ror	r24
 a3a:	08 95       	ret
 a3c:	12 16       	cp	r1, r18
 a3e:	13 06       	cpc	r1, r19
 a40:	14 06       	cpc	r1, r20
 a42:	55 1f       	adc	r21, r21
 a44:	f2 cf       	rjmp	.-28     	; 0xa2a <__fp_split3+0xe>
 a46:	46 95       	lsr	r20
 a48:	f1 df       	rcall	.-30     	; 0xa2c <__fp_splitA>
 a4a:	08 c0       	rjmp	.+16     	; 0xa5c <__fp_splitA+0x30>
 a4c:	16 16       	cp	r1, r22
 a4e:	17 06       	cpc	r1, r23
 a50:	18 06       	cpc	r1, r24
 a52:	99 1f       	adc	r25, r25
 a54:	f1 cf       	rjmp	.-30     	; 0xa38 <__fp_splitA+0xc>
 a56:	86 95       	lsr	r24
 a58:	71 05       	cpc	r23, r1
 a5a:	61 05       	cpc	r22, r1
 a5c:	08 94       	sec
 a5e:	08 95       	ret

Disassembly of section .text.avrlibc.fplib:

00000b98 <__fp_zero>:
 b98:	e8 94       	clt

00000b9a <__fp_szero>:
 b9a:	bb 27       	eor	r27, r27
 b9c:	66 27       	eor	r22, r22
 b9e:	77 27       	eor	r23, r23
 ba0:	cb 01       	movw	r24, r22
 ba2:	97 f9       	bld	r25, 7
 ba4:	08 95       	ret

Disassembly of section .text.avrlibc.fplib:

00000bbe <__mulsf3>:
 bbe:	0e 94 45 02 	call	0x48a	; 0x48a <__mulsf3x>
 bc2:	0c 94 8f 05 	jmp	0xb1e	; 0xb1e <__fp_round>

Disassembly of section .text.avrlibc.fplib:

0000048a <__mulsf3x>:
 48a:	0f c0       	rjmp	.+30     	; 0x4aa <__mulsf3x+0x20>
 48c:	0e 94 be 05 	call	0xb7c	; 0xb7c <__fp_pscA>
 490:	38 f0       	brcs	.+14     	; 0x4a0 <__mulsf3x+0x16>
 492:	0e 94 c5 05 	call	0xb8a	; 0xb8a <__fp_pscB>
 496:	20 f0       	brcs	.+8      	; 0x4a0 <__mulsf3x+0x16>
 498:	95 23       	and	r25, r21
 49a:	11 f0       	breq	.+4      	; 0x4a0 <__mulsf3x+0x16>
 49c:	0c 94 d3 05 	jmp	0xba6	; 0xba6 <__fp_inf>
 4a0:	0c 94 e3 05 	jmp	0xbc6	; 0xbc6 <__fp_nan>
 4a4:	11 24       	eor	r1, r1
 4a6:	0c 94 cd 05 	jmp	0xb9a	; 0xb9a <__fp_szero>
 4aa:	0e 94 0e 05 	call	0xa1c	; 0xa1c <__fp_split3>
 4ae:	70 f3       	brcs	.-36     	; 0x48c <__mulsf3x+0x2>

000004b0 <__mulsf3_pse>:
 4b0:	95 9f       	mul	r25, r21
 4b2:	c1 f3       	breq	.-16     	; 0x4a4 <__mulsf3x+0x1a>
 4b4:	95 0f       	add	r25, r21
 4b6:	50 e0       	ldi	r21, 0x00	; 0
 4b8:	55 1f       	adc	r21, r21
 4ba:	62 9f       	mul	r22, r18
 4bc:	f0 01       	movw	r30, r0
 4be:	72 9f       	mul	r23, r18
 4c0:	bb 27       	eor	r27, r27
 4c2:	f0 0d       	add	r31, r0
 4c4:	b1 1d       	adc	r27, r1
 4c6:	63 9f       	mul	r22, r19
 4c8:	aa 27       	eor	r26, r26
 4ca:	f0 0d       	add	r31, r0
 4cc:	b1 1d       	adc	r27, r1
 4ce:	aa 1f       	adc	r26, r26
 4d0:	64 9f       	mul	r22, r20
 4d2:	66 27       	eor	r22, r22
 4d4:	b0 0d       	add	r27, r0
 4d6:	a1 1d       	adc	r26, r1
 4d8:	66 1f       	adc	r22, r22
 4da:	82 9f       	mul	r24, r18
 4dc:	22 27       	eor	r18, r18
 4de:	b0 0d       	add	r27, r0
 4e0:	a1 1d       	adc	r26, r1
 4e2:	62 1f       	adc	r22, r18
 4e4:	73 9f       	mul	r23, r19
 4e6:	b0 0d       	add	r27, r0
 4e8:	a1 1d       	adc	r26, r1
 4ea:	62 1f       	adc	r22, r18
 4ec:	83 9f       	mul	r24, r19
 4ee:	a0 0d       	add	r26, r0
 4f0:	61 1d       	adc	r22, r1
 4f2:	22 1f       	adc	r18, r18
 4f4:	74 9f       	mul	r23, r20
 4f6:	33 27       	eor	r19, r19
 4f8:	a0 0d       	add	r26, r0
 4fa:	61 1d       	adc	r22, r1
 4fc:	23 1f       	adc	r18, r19
 4fe:	84 9f       	mul	r24, r20
 500:	60 0d       	add	r22, r0
 502:	21 1d       	adc	r18, r1
 504:	82 2f       	mov	r24, r18
 506:	76 2f       	mov	r23, r22
 508:	6a 2f       	mov	r22, r26
 50a:	11 24       	eor	r1, r1
 50c:	9f 57       	subi	r25, 0x7F	; 127
 50e:	50 40       	sbci	r21, 0x00	; 0
 510:	9a f0       	brmi	.+38     	; 0x538 <__mulsf3_pse+0x88>
 512:	f1 f0       	breq	.+60     	; 0x550 <__mulsf3_pse+0xa0>
 514:	88 23       	and	r24, r24
 516:	4a f0       	brmi	.+18     	; 0x52a <__mulsf3_pse+0x7a>
 518:	ee 0f       	add	r30, r30
 51a:	ff 1f       	adc	r31, r31
 51c:	bb 1f       	adc	r27, r27
 51e:	66 1f       	adc	r22, r22
 520:	77 1f       	adc	r23, r23
 522:	88 1f       	adc	r24, r24
 524:	91 50       	subi	r25, 0x01	; 1
 526:	50 40       	sbci	r21, 0x00	; 0
 528:	a9 f7       	brne	.-22     	; 0x514 <__mulsf3_pse+0x64>
 52a:	9e 3f       	cpi	r25, 0xFE	; 254
 52c:	51 05       	cpc	r21, r1
 52e:	80 f0       	brcs	.+32     	; 0x550 <__mulsf3_pse+0xa0>
 530:	0c 94 d3 05 	jmp	0xba6	; 0xba6 <__fp_inf>
 534:	0c 94 cd 05 	jmp	0xb9a	; 0xb9a <__fp_szero>
 538:	5f 3f       	cpi	r21, 0xFF	; 255
 53a:	e4 f3       	brlt	.-8      	; 0x534 <__mulsf3_pse+0x84>
 53c:	98 3e       	cpi	r25, 0xE8	; 232
 53e:	d4 f3       	brlt	.-12     	; 0x534 <__mulsf3_pse+0x84>
 540:	86 95       	lsr	r24
 542:	77 95       	ror	r23
 544:	67 95       	ror	r22
 546:	b7 95       	ror	r27
 548:	f7 95       	ror	r31
 54a:	e7 95       	ror	r30
 54c:	9f 5f       	subi	r25, 0xFF	; 255
 54e:	c1 f7       	brne	.-16     	; 0x540 <__mulsf3_pse+0x90>
 550:	fe 2b       	or	r31, r30
 552:	88 0f       	add	r24, r24
 554:	91 1d       	adc	r25, r1
 556:	96 95       	lsr	r25
 558:	87 95       	ror	r24
 55a:	97 f9       	bld	r25, 7
 55c:	08 95       	ret

Disassembly of section .text.libgcc.div:

00000aa4 <__divmodsi4>:
 aa4:	05 2e       	mov	r0, r21
 aa6:	97 fb       	bst	r25, 7
 aa8:	1e f4       	brtc	.+6      	; 0xab0 <__divmodsi4+0xc>
 aaa:	00 94       	com	r0
 aac:	0e 94 af 05 	call	0xb5e	; 0xb5e <__negsi2>
 ab0:	57 fd       	sbrc	r21, 7
 ab2:	07 d0       	rcall	.+14     	; 0xac2 <__divmodsi4_neg2>
 ab4:	0e 94 30 05 	call	0xa60	; 0xa60 <__udivmodsi4>
 ab8:	07 fc       	sbrc	r0, 7
 aba:	03 d0       	rcall	.+6      	; 0xac2 <__divmodsi4_neg2>
 abc:	4e f4       	brtc	.+18     	; 0xad0 <__divmodsi4_exit>
 abe:	0c 94 af 05 	jmp	0xb5e	; 0xb5e <__negsi2>

00000ac2 <__divmodsi4_neg2>:
 ac2:	50 95       	com	r21
 ac4:	40 95       	com	r20
 ac6:	30 95       	com	r19
 ac8:	21 95       	neg	r18
 aca:	3f 4f       	sbci	r19, 0xFF	; 255
 acc:	4f 4f       	sbci	r20, 0xFF	; 255
 ace:	5f 4f       	sbci	r21, 0xFF	; 255

00000ad0 <__divmodsi4_exit>:
 ad0:	08 95       	ret

Disassembly of section .text.libgcc.div:

00000b5e <__negsi2>:
 b5e:	90 95       	com	r25
 b60:	80 95       	com	r24
 b62:	70 95       	com	r23
 b64:	61 95       	neg	r22
 b66:	7f 4f       	sbci	r23, 0xFF	; 255
 b68:	8f 4f       	sbci	r24, 0xFF	; 255
 b6a:	9f 4f       	sbci	r25, 0xFF	; 255
 b6c:	08 95       	ret

Disassembly of section .text.libgcc:

00000bb2 <__tablejump2__>:
 bb2:	ee 0f       	add	r30, r30
 bb4:	ff 1f       	adc	r31, r31
 bb6:	05 90       	lpm	r0, Z+
 bb8:	f4 91       	lpm	r31, Z
 bba:	e0 2d       	mov	r30, r0
 bbc:	09 94       	ijmp

Disassembly of section .text.libgcc.div:

00000a60 <__udivmodsi4>:
 a60:	a1 e2       	ldi	r26, 0x21	; 33
 a62:	1a 2e       	mov	r1, r26
 a64:	aa 1b       	sub	r26, r26
 a66:	bb 1b       	sub	r27, r27
 a68:	fd 01       	movw	r30, r26
 a6a:	0d c0       	rjmp	.+26     	; 0xa86 <__udivmodsi4_ep>

00000a6c <__udivmodsi4_loop>:
 a6c:	aa 1f       	adc	r26, r26
 a6e:	bb 1f       	adc	r27, r27
 a70:	ee 1f       	adc	r30, r30
 a72:	ff 1f       	adc	r31, r31
 a74:	a2 17       	cp	r26, r18
 a76:	b3 07       	cpc	r27, r19
 a78:	e4 07       	cpc	r30, r20
 a7a:	f5 07       	cpc	r31, r21
 a7c:	20 f0       	brcs	.+8      	; 0xa86 <__udivmodsi4_ep>
 a7e:	a2 1b       	sub	r26, r18
 a80:	b3 0b       	sbc	r27, r19
 a82:	e4 0b       	sbc	r30, r20
 a84:	f5 0b       	sbc	r31, r21

00000a86 <__udivmodsi4_ep>:
 a86:	66 1f       	adc	r22, r22
 a88:	77 1f       	adc	r23, r23
 a8a:	88 1f       	adc	r24, r24
 a8c:	99 1f       	adc	r25, r25
 a8e:	1a 94       	dec	r1
 a90:	69 f7       	brne	.-38     	; 0xa6c <__udivmodsi4_loop>
 a92:	60 95       	com	r22
 a94:	70 95       	com	r23
 a96:	80 95       	com	r24
 a98:	90 95       	com	r25
 a9a:	9b 01       	movw	r18, r22
 a9c:	ac 01       	movw	r20, r24
 a9e:	bd 01       	movw	r22, r26
 aa0:	cf 01       	movw	r24, r30
 aa2:	08 95       	ret
