
ATMEGA16.elf:     file format elf32-avr

Sections:
Idx Name          Size      VMA       LMA       File off  Algn
  0 .text         00000210  00000000  00000000  00000074  2**1
                  CONTENTS, ALLOC, LOAD, READONLY, CODE
  1 .data         00000000  00800060  00800060  00000b4e  2**0
                  ALLOC, LOAD, DATA
  2 .comment      0000002f  00000000  00000000  00000b4e  2**0
                  CONTENTS, READONLY
  3 .debug_aranges 00000150  00000000  00000000  00000b7d  2**0
                  CONTENTS, READONLY, DEBUGGING
  4 .debug_info   000036e5  00000000  00000000  00000ccd  2**0
                  CONTENTS, READONLY, DEBUGGING
  5 .debug_abbrev 00000a6c  00000000  00000000  000043b2  2**0
                  CONTENTS, READONLY, DEBUGGING
  6 .debug_line   00000ebc  00000000  00000000  00004e1e  2**0
                  CONTENTS, READONLY, DEBUGGING
  7 .debug_frame  00000468  00000000  00000000  00005cdc  2**2
                  CONTENTS, READONLY, DEBUGGING
  8 .debug_str    00000365  00000000  00000000  00006144  2**0
                  CONTENTS, READONLY, DEBUGGING
  9 .debug_loc    0000275c  00000000  00000000  000064a9  2**0
                  CONTENTS, READONLY, DEBUGGING
 10 .debug_ranges 00000128  00000000  00000000  00008c05  2**0
                  CONTENTS, READONLY, DEBUGGING
 11 .text         00000004  00000ad6  00000ad6  00000b4a  2**1
                  CONTENTS, ALLOC, LOAD, READONLY, CODE
 12 .note.gnu.avr.deviceinfo 0000003c  00000000  00000000  00008d30  2**2
                  CONTENTS, READONLY, DEBUGGING
 13 .text.DHT11_send_start_signal 00000034  000009ee  000009ee  00000a62  2**1
                  CONTENTS, ALLOC, LOAD, READONLY, CODE
 14 .text.DHT11_receive_response_signal 00000038  000009b6  000009b6  00000a2a  2**1
                  CONTENTS, ALLOC, LOAD, READONLY, CODE
 15 .text.DHT11_read_byte 00000060  000007f8  000007f8  0000086c  2**1
                  CONTENTS, ALLOC, LOAD, READONLY, CODE
 16 .text.DHT11_stop 0000001e  00000a9c  00000a9c  00000b10  2**1
                  CONTENTS, ALLOC, LOAD, READONLY, CODE
 17 .text.DIO_set_bit_dir 000000e0  0000036a  0000036a  000003de  2**1
                  CONTENTS, ALLOC, LOAD, READONLY, CODE
 18 .text.DIO_write_bit 000000e0  0000044a  0000044a  000004be  2**1
                  CONTENTS, ALLOC, LOAD, READONLY, CODE
 19 .text.DIO_read_bit_u8 000000cc  0000052a  0000052a  0000059e  2**1
                  CONTENTS, ALLOC, LOAD, READONLY, CODE
 20 .text.DIO_set_dir 00000026  00000a50  00000a50  00000ac4  2**1
                  CONTENTS, ALLOC, LOAD, READONLY, CODE
 21 .text.DIO_write_port 00000026  00000a76  00000a76  00000aea  2**1
                  CONTENTS, ALLOC, LOAD, READONLY, CODE
 22 .text.LCD_send_char 00000060  00000858  00000858  000008cc  2**1
                  CONTENTS, ALLOC, LOAD, READONLY, CODE
 23 .text.LCD_send_cmd 00000060  000008b8  000008b8  0000092c  2**1
                  CONTENTS, ALLOC, LOAD, READONLY, CODE
 24 .text.LCD_inatialize 000000b0  000005f6  000005f6  0000066a  2**1
                  CONTENTS, ALLOC, LOAD, READONLY, CODE
 25 .text.LCD_send_Snum 000000ac  000006a6  000006a6  0000071a  2**1
                  CONTENTS, ALLOC, LOAD, READONLY, CODE
 26 .text.LCD_move_cursor 0000005a  00000918  00000918  0000098c  2**1
                  CONTENTS, ALLOC, LOAD, READONLY, CODE
 27 .text.LCD_send_string 000000a6  00000752  00000752  000007c6  2**1
                  CONTENTS, ALLOC, LOAD, READONLY, CODE
 28 .progmemx.data 0000000f  00000210  00000210  00000284  2**0
                  CONTENTS, ALLOC, LOAD, READONLY, PROGMEMX
 29 .text.main    0000014a  00000220  00000220  00000294  2**1
                  CONTENTS, ALLOC, LOAD, READONLY, CODE
 30 .text.libgcc.div 00000044  00000972  00000972  000009e6  2**1
                  CONTENTS, ALLOC, LOAD, READONLY, CODE
 31 .text.libgcc.div 0000002e  00000a22  00000a22  00000a96  2**1
                  CONTENTS, ALLOC, LOAD, READONLY, CODE
 32 .text.libgcc.div 00000010  00000aba  00000aba  00000b2e  2**1
                  CONTENTS, ALLOC, LOAD, READONLY, CODE
 33 .text.libgcc  0000000c  00000aca  00000aca  00000b3e  2**1
                  CONTENTS, ALLOC, LOAD, READONLY, CODE

Disassembly of section .text:

00000000 <__vectors>:
   0:	0c 94 de 00 	jmp	0x1bc	; 0x1bc <__ctors_end>
   4:	0c 94 6b 05 	jmp	0xad6	; 0xad6 <__bad_interrupt>
   8:	0c 94 6b 05 	jmp	0xad6	; 0xad6 <__bad_interrupt>
   c:	0c 94 6b 05 	jmp	0xad6	; 0xad6 <__bad_interrupt>
  10:	0c 94 6b 05 	jmp	0xad6	; 0xad6 <__bad_interrupt>
  14:	0c 94 6b 05 	jmp	0xad6	; 0xad6 <__bad_interrupt>
  18:	0c 94 6b 05 	jmp	0xad6	; 0xad6 <__bad_interrupt>
  1c:	0c 94 6b 05 	jmp	0xad6	; 0xad6 <__bad_interrupt>
  20:	0c 94 6b 05 	jmp	0xad6	; 0xad6 <__bad_interrupt>
  24:	0c 94 6b 05 	jmp	0xad6	; 0xad6 <__bad_interrupt>
  28:	0c 94 6b 05 	jmp	0xad6	; 0xad6 <__bad_interrupt>
  2c:	0c 94 6b 05 	jmp	0xad6	; 0xad6 <__bad_interrupt>
  30:	0c 94 6b 05 	jmp	0xad6	; 0xad6 <__bad_interrupt>
  34:	0c 94 6b 05 	jmp	0xad6	; 0xad6 <__bad_interrupt>
  38:	0c 94 6b 05 	jmp	0xad6	; 0xad6 <__bad_interrupt>
  3c:	0c 94 6b 05 	jmp	0xad6	; 0xad6 <__bad_interrupt>
  40:	0c 94 6b 05 	jmp	0xad6	; 0xad6 <__bad_interrupt>
  44:	0c 94 6b 05 	jmp	0xad6	; 0xad6 <__bad_interrupt>
  48:	0c 94 6b 05 	jmp	0xad6	; 0xad6 <__bad_interrupt>
  4c:	0c 94 6b 05 	jmp	0xad6	; 0xad6 <__bad_interrupt>
  50:	0c 94 6b 05 	jmp	0xad6	; 0xad6 <__bad_interrupt>
  54:	c1 01       	movw	r24, r2
  56:	da 01       	movw	r26, r20
  58:	f3 01       	movw	r30, r6
  5a:	0c 02       	muls	r16, r28
  5c:	24 02       	muls	r18, r20
  5e:	24 02       	muls	r18, r20
  60:	24 02       	muls	r18, r20
  62:	24 02       	muls	r18, r20
  64:	24 02       	muls	r18, r20
  66:	24 02       	muls	r18, r20
  68:	24 02       	muls	r18, r20
  6a:	24 02       	muls	r18, r20
  6c:	24 02       	muls	r18, r20
  6e:	24 02       	muls	r18, r20
  70:	24 02       	muls	r18, r20
  72:	24 02       	muls	r18, r20
  74:	24 02       	muls	r18, r20
  76:	24 02       	muls	r18, r20
  78:	24 02       	muls	r18, r20
  7a:	24 02       	muls	r18, r20
  7c:	24 02       	muls	r18, r20
  7e:	24 02       	muls	r18, r20
  80:	24 02       	muls	r18, r20
  82:	24 02       	muls	r18, r20
  84:	24 02       	muls	r18, r20
  86:	24 02       	muls	r18, r20
  88:	24 02       	muls	r18, r20
  8a:	24 02       	muls	r18, r20
  8c:	24 02       	muls	r18, r20
  8e:	24 02       	muls	r18, r20
  90:	24 02       	muls	r18, r20
  92:	24 02       	muls	r18, r20
  94:	c1 01       	movw	r24, r2
  96:	da 01       	movw	r26, r20
  98:	f3 01       	movw	r30, r6
  9a:	0c 02       	muls	r16, r28
  9c:	31 02       	muls	r19, r17
  9e:	4a 02       	muls	r20, r26
  a0:	63 02       	muls	r22, r19
  a2:	7c 02       	muls	r23, r28
  a4:	94 02       	muls	r25, r20
  a6:	94 02       	muls	r25, r20
  a8:	94 02       	muls	r25, r20
  aa:	94 02       	muls	r25, r20
  ac:	94 02       	muls	r25, r20
  ae:	94 02       	muls	r25, r20
  b0:	94 02       	muls	r25, r20
  b2:	94 02       	muls	r25, r20
  b4:	94 02       	muls	r25, r20
  b6:	94 02       	muls	r25, r20
  b8:	94 02       	muls	r25, r20
  ba:	94 02       	muls	r25, r20
  bc:	94 02       	muls	r25, r20
  be:	94 02       	muls	r25, r20
  c0:	94 02       	muls	r25, r20
  c2:	94 02       	muls	r25, r20
  c4:	94 02       	muls	r25, r20
  c6:	94 02       	muls	r25, r20
  c8:	94 02       	muls	r25, r20
  ca:	94 02       	muls	r25, r20
  cc:	94 02       	muls	r25, r20
  ce:	94 02       	muls	r25, r20
  d0:	94 02       	muls	r25, r20
  d2:	94 02       	muls	r25, r20
  d4:	94 02       	muls	r25, r20
  d6:	94 02       	muls	r25, r20
  d8:	94 02       	muls	r25, r20
  da:	94 02       	muls	r25, r20
  dc:	31 02       	muls	r19, r17
  de:	4a 02       	muls	r20, r26
  e0:	63 02       	muls	r22, r19
  e2:	7c 02       	muls	r23, r28
  e4:	a4 02       	muls	r26, r20
  e6:	b9 02       	muls	r27, r25
  e8:	ce 02       	muls	r28, r30
  ea:	e3 02       	muls	r30, r19
  ec:	f7 02       	muls	r31, r23
  ee:	f7 02       	muls	r31, r23
  f0:	f7 02       	muls	r31, r23
  f2:	f7 02       	muls	r31, r23
  f4:	f7 02       	muls	r31, r23
  f6:	f7 02       	muls	r31, r23
  f8:	f7 02       	muls	r31, r23
  fa:	f7 02       	muls	r31, r23
  fc:	f7 02       	muls	r31, r23
  fe:	f7 02       	muls	r31, r23
 100:	f7 02       	muls	r31, r23
 102:	f7 02       	muls	r31, r23
 104:	f7 02       	muls	r31, r23
 106:	f7 02       	muls	r31, r23
 108:	f7 02       	muls	r31, r23
 10a:	f7 02       	muls	r31, r23
 10c:	f7 02       	muls	r31, r23
 10e:	f7 02       	muls	r31, r23
 110:	f7 02       	muls	r31, r23
 112:	f7 02       	muls	r31, r23
 114:	f7 02       	muls	r31, r23
 116:	f7 02       	muls	r31, r23
 118:	f7 02       	muls	r31, r23
 11a:	f7 02       	muls	r31, r23
 11c:	f7 02       	muls	r31, r23
 11e:	f7 02       	muls	r31, r23
 120:	f7 02       	muls	r31, r23
 122:	f7 02       	muls	r31, r23
 124:	a4 02       	muls	r26, r20
 126:	b9 02       	muls	r27, r25
 128:	ce 02       	muls	r28, r30
 12a:	e3 02       	muls	r30, r19
 12c:	33 05       	cpc	r19, r3
 12e:	35 05       	cpc	r19, r5
 130:	37 05       	cpc	r19, r7
 132:	39 05       	cpc	r19, r9
 134:	3a 05       	cpc	r19, r10
 136:	3a 05       	cpc	r19, r10
 138:	3a 05       	cpc	r19, r10
 13a:	3a 05       	cpc	r19, r10
 13c:	3a 05       	cpc	r19, r10
 13e:	3a 05       	cpc	r19, r10
 140:	3a 05       	cpc	r19, r10
 142:	3a 05       	cpc	r19, r10
 144:	3a 05       	cpc	r19, r10
 146:	3a 05       	cpc	r19, r10
 148:	3a 05       	cpc	r19, r10
 14a:	3a 05       	cpc	r19, r10
 14c:	3a 05       	cpc	r19, r10
 14e:	3a 05       	cpc	r19, r10
 150:	3a 05       	cpc	r19, r10
 152:	3a 05       	cpc	r19, r10
 154:	3a 05       	cpc	r19, r10
 156:	3a 05       	cpc	r19, r10
 158:	3a 05       	cpc	r19, r10
 15a:	3a 05       	cpc	r19, r10
 15c:	3a 05       	cpc	r19, r10
 15e:	3a 05       	cpc	r19, r10
 160:	3a 05       	cpc	r19, r10
 162:	3a 05       	cpc	r19, r10
 164:	3a 05       	cpc	r19, r10
 166:	3a 05       	cpc	r19, r10
 168:	3a 05       	cpc	r19, r10
 16a:	3a 05       	cpc	r19, r10
 16c:	33 05       	cpc	r19, r3
 16e:	35 05       	cpc	r19, r5
 170:	37 05       	cpc	r19, r7
 172:	39 05       	cpc	r19, r9
 174:	46 05       	cpc	r20, r6
 176:	48 05       	cpc	r20, r8
 178:	4a 05       	cpc	r20, r10
 17a:	4c 05       	cpc	r20, r12
 17c:	4d 05       	cpc	r20, r13
 17e:	4d 05       	cpc	r20, r13
 180:	4d 05       	cpc	r20, r13
 182:	4d 05       	cpc	r20, r13
 184:	4d 05       	cpc	r20, r13
 186:	4d 05       	cpc	r20, r13
 188:	4d 05       	cpc	r20, r13
 18a:	4d 05       	cpc	r20, r13
 18c:	4d 05       	cpc	r20, r13
 18e:	4d 05       	cpc	r20, r13
 190:	4d 05       	cpc	r20, r13
 192:	4d 05       	cpc	r20, r13
 194:	4d 05       	cpc	r20, r13
 196:	4d 05       	cpc	r20, r13
 198:	4d 05       	cpc	r20, r13
 19a:	4d 05       	cpc	r20, r13
 19c:	4d 05       	cpc	r20, r13
 19e:	4d 05       	cpc	r20, r13
 1a0:	4d 05       	cpc	r20, r13
 1a2:	4d 05       	cpc	r20, r13
 1a4:	4d 05       	cpc	r20, r13
 1a6:	4d 05       	cpc	r20, r13
 1a8:	4d 05       	cpc	r20, r13
 1aa:	4d 05       	cpc	r20, r13
 1ac:	4d 05       	cpc	r20, r13
 1ae:	4d 05       	cpc	r20, r13
 1b0:	4d 05       	cpc	r20, r13
 1b2:	4d 05       	cpc	r20, r13
 1b4:	46 05       	cpc	r20, r6
 1b6:	48 05       	cpc	r20, r8
 1b8:	4a 05       	cpc	r20, r10
 1ba:	4c 05       	cpc	r20, r12

000001bc <__ctors_end>:
 1bc:	11 24       	eor	r1, r1
 1be:	1f be       	out	0x3f, r1	; 63
 1c0:	cf e5       	ldi	r28, 0x5F	; 95
 1c2:	d4 e0       	ldi	r29, 0x04	; 4
 1c4:	de bf       	out	0x3e, r29	; 62
 1c6:	cd bf       	out	0x3d, r28	; 61

000001c8 <__do_copy_data>:
 1c8:	ec eb       	ldi	r30, 0xBC	; 188
 1ca:	f1 e0       	ldi	r31, 0x01	; 1
 1cc:	41 e0       	ldi	r20, 0x01	; 1
 1ce:	17 c0       	rjmp	.+46     	; 0x1fe <__do_clear_bss+0x8>
 1d0:	b5 91       	lpm	r27, Z+
 1d2:	a5 91       	lpm	r26, Z+
 1d4:	35 91       	lpm	r19, Z+
 1d6:	25 91       	lpm	r18, Z+
 1d8:	05 91       	lpm	r16, Z+
 1da:	07 fd       	sbrc	r16, 7
 1dc:	0c c0       	rjmp	.+24     	; 0x1f6 <__do_clear_bss>
 1de:	95 91       	lpm	r25, Z+
 1e0:	85 91       	lpm	r24, Z+
 1e2:	ef 01       	movw	r28, r30
 1e4:	f9 2f       	mov	r31, r25
 1e6:	e8 2f       	mov	r30, r24
 1e8:	05 90       	lpm	r0, Z+
 1ea:	0d 92       	st	X+, r0
 1ec:	a2 17       	cp	r26, r18
 1ee:	b3 07       	cpc	r27, r19
 1f0:	d9 f7       	brne	.-10     	; 0x1e8 <__do_copy_data+0x20>
 1f2:	fe 01       	movw	r30, r28
 1f4:	04 c0       	rjmp	.+8      	; 0x1fe <__do_clear_bss+0x8>

000001f6 <__do_clear_bss>:
 1f6:	1d 92       	st	X+, r1
 1f8:	a2 17       	cp	r26, r18
 1fa:	b3 07       	cpc	r27, r19
 1fc:	e1 f7       	brne	.-8      	; 0x1f6 <__do_clear_bss>
 1fe:	ec 3b       	cpi	r30, 0xBC	; 188
 200:	f4 07       	cpc	r31, r20
 202:	31 f7       	brne	.-52     	; 0x1d0 <__do_copy_data+0x8>
 204:	0e 94 10 01 	call	0x220	; 0x220 <main>
 208:	0c 94 06 01 	jmp	0x20c	; 0x20c <_exit>

0000020c <_exit>:
 20c:	f8 94       	cli

0000020e <__stop_program>:
 20e:	ff cf       	rjmp	.-2      	; 0x20e <__stop_program>

Disassembly of section .text:

00000ad6 <__bad_interrupt>:
 ad6:	0c 94 00 00 	jmp	0	; 0x0 <__TEXT_REGION_ORIGIN__>

Disassembly of section .text.DHT11_send_start_signal:

000009ee <DHT11_send_start_signal>:
	DIO_set_bit_dir(port,pin,1);
	//DIO_write_bit(port,pin,1);
}

void DHT11_send_start_signal(unsigned char port,unsigned char pin)
{
 9ee:	cf 93       	push	r28
 9f0:	df 93       	push	r29
 9f2:	c8 2f       	mov	r28, r24
 9f4:	d6 2f       	mov	r29, r22
	DIO_set_bit_dir(port,pin,1);
 9f6:	41 e0       	ldi	r20, 0x01	; 1
 9f8:	0e 94 b5 01 	call	0x36a	; 0x36a <DIO_set_bit_dir>
	DIO_write_bit(port,pin,0);
 9fc:	40 e0       	ldi	r20, 0x00	; 0
 9fe:	6d 2f       	mov	r22, r29
 a00:	8c 2f       	mov	r24, r28
 a02:	0e 94 25 02 	call	0x44a	; 0x44a <DIO_write_bit>
	#else
		//round up by default
		__ticks_dc = (uint32_t)(ceil(fabs(__tmp)));
	#endif

	__builtin_avr_delay_cycles(__ticks_dc);
 a06:	87 e8       	ldi	r24, 0x87	; 135
 a08:	93 e1       	ldi	r25, 0x13	; 19
 a0a:	01 97       	sbiw	r24, 0x01	; 1
 a0c:	f1 f7       	brne	.-4      	; 0xa0a <DHT11_send_start_signal+0x1c>
 a0e:	00 c0       	rjmp	.+0      	; 0xa10 <DHT11_send_start_signal+0x22>
 a10:	00 00       	nop
	_delay_ms(20);
	DIO_write_bit(port,pin,1);
 a12:	41 e0       	ldi	r20, 0x01	; 1
 a14:	6d 2f       	mov	r22, r29
 a16:	8c 2f       	mov	r24, r28
 a18:	0e 94 25 02 	call	0x44a	; 0x44a <DIO_write_bit>
}
 a1c:	df 91       	pop	r29
 a1e:	cf 91       	pop	r28
 a20:	08 95       	ret

Disassembly of section .text.DHT11_receive_response_signal:

000009b6 <DHT11_receive_response_signal>:
#include "../DIO/DIO.h"
#include "util/delay.h"

void DHT11_initialize(unsigned char port,unsigned char pin)
{
	DIO_set_bit_dir(port,pin,1);
 9b6:	cf 93       	push	r28
 9b8:	df 93       	push	r29
 9ba:	c8 2f       	mov	r28, r24
 9bc:	d6 2f       	mov	r29, r22
 9be:	40 e0       	ldi	r20, 0x00	; 0
 9c0:	0e 94 b5 01 	call	0x36a	; 0x36a <DIO_set_bit_dir>
 9c4:	6d 2f       	mov	r22, r29
 9c6:	8c 2f       	mov	r24, r28
 9c8:	0e 94 95 02 	call	0x52a	; 0x52a <DIO_read_bit_u8>
 9cc:	81 30       	cpi	r24, 0x01	; 1
 9ce:	d1 f3       	breq	.-12     	; 0x9c4 <DHT11_receive_response_signal+0xe>
 9d0:	6d 2f       	mov	r22, r29
 9d2:	8c 2f       	mov	r24, r28
 9d4:	0e 94 95 02 	call	0x52a	; 0x52a <DIO_read_bit_u8>
 9d8:	88 23       	and	r24, r24
 9da:	d1 f3       	breq	.-12     	; 0x9d0 <DHT11_receive_response_signal+0x1a>
 9dc:	6d 2f       	mov	r22, r29
 9de:	8c 2f       	mov	r24, r28
 9e0:	0e 94 95 02 	call	0x52a	; 0x52a <DIO_read_bit_u8>
 9e4:	81 30       	cpi	r24, 0x01	; 1
 9e6:	d1 f3       	breq	.-12     	; 0x9dc <DHT11_receive_response_signal+0x26>
 9e8:	df 91       	pop	r29
 9ea:	cf 91       	pop	r28
 9ec:	08 95       	ret

Disassembly of section .text.DHT11_read_byte:

000007f8 <DHT11_read_byte>:
 7f8:	0f 93       	push	r16
 7fa:	1f 93       	push	r17
 7fc:	cf 93       	push	r28
 7fe:	df 93       	push	r29
 800:	d8 2f       	mov	r29, r24
 802:	c6 2f       	mov	r28, r22
 804:	00 e0       	ldi	r16, 0x00	; 0
 806:	10 e0       	ldi	r17, 0x00	; 0
 808:	1f c0       	rjmp	.+62     	; 0x848 <DHT11_read_byte+0x50>
 80a:	6c 2f       	mov	r22, r28
 80c:	8d 2f       	mov	r24, r29
 80e:	0e 94 95 02 	call	0x52a	; 0x52a <DIO_read_bit_u8>
 812:	88 23       	and	r24, r24
 814:	d1 f3       	breq	.-12     	; 0x80a <DHT11_read_byte+0x12>
 816:	89 e1       	ldi	r24, 0x19	; 25
 818:	8a 95       	dec	r24
 81a:	f1 f7       	brne	.-4      	; 0x818 <DHT11_read_byte+0x20>
 81c:	00 c0       	rjmp	.+0      	; 0x81e <DHT11_read_byte+0x26>
 81e:	6c 2f       	mov	r22, r28
 820:	8d 2f       	mov	r24, r29
 822:	0e 94 95 02 	call	0x52a	; 0x52a <DIO_read_bit_u8>
 826:	81 30       	cpi	r24, 0x01	; 1
 828:	39 f4       	brne	.+14     	; 0x838 <DHT11_read_byte+0x40>
 82a:	81 2f       	mov	r24, r17
 82c:	90 e0       	ldi	r25, 0x00	; 0
 82e:	88 0f       	add	r24, r24
 830:	99 1f       	adc	r25, r25
 832:	18 2f       	mov	r17, r24
 834:	11 60       	ori	r17, 0x01	; 1
 836:	01 c0       	rjmp	.+2      	; 0x83a <DHT11_read_byte+0x42>
 838:	11 0f       	add	r17, r17
 83a:	6c 2f       	mov	r22, r28
 83c:	8d 2f       	mov	r24, r29
 83e:	0e 94 95 02 	call	0x52a	; 0x52a <DIO_read_bit_u8>
 842:	81 30       	cpi	r24, 0x01	; 1
 844:	d1 f3       	breq	.-12     	; 0x83a <DHT11_read_byte+0x42>
 846:	0f 5f       	subi	r16, 0xFF	; 255
 848:	08 30       	cpi	r16, 0x08	; 8
 84a:	f8 f2       	brcs	.-66     	; 0x80a <DHT11_read_byte+0x12>
 84c:	81 2f       	mov	r24, r17
 84e:	df 91       	pop	r29
 850:	cf 91       	pop	r28
 852:	1f 91       	pop	r17
 854:	0f 91       	pop	r16
 856:	08 95       	ret

Disassembly of section .text.DHT11_stop:

00000a9c <DHT11_stop>:
	}
	return data;
}

void DHT11_stop(unsigned char port,unsigned char pin)
{
 a9c:	cf 93       	push	r28
 a9e:	df 93       	push	r29
 aa0:	c8 2f       	mov	r28, r24
 aa2:	d6 2f       	mov	r29, r22
	DIO_set_bit_dir(port,pin,1);
 aa4:	41 e0       	ldi	r20, 0x01	; 1
 aa6:	0e 94 b5 01 	call	0x36a	; 0x36a <DIO_set_bit_dir>
	DIO_write_bit(port,pin,0);
 aaa:	40 e0       	ldi	r20, 0x00	; 0
 aac:	6d 2f       	mov	r22, r29
 aae:	8c 2f       	mov	r24, r28
 ab0:	0e 94 25 02 	call	0x44a	; 0x44a <DIO_write_bit>
 ab4:	df 91       	pop	r29
 ab6:	cf 91       	pop	r28
 ab8:	08 95       	ret

Disassembly of section .text.DIO_set_bit_dir:

0000036a <DIO_set_bit_dir>:
 36a:	90 e0       	ldi	r25, 0x00	; 0
 36c:	fc 01       	movw	r30, r24
 36e:	e1 54       	subi	r30, 0x41	; 65
 370:	f1 09       	sbc	r31, r1
 372:	e4 32       	cpi	r30, 0x24	; 36
 374:	f1 05       	cpc	r31, r1
 376:	08 f0       	brcs	.+2      	; 0x37a <DIO_set_bit_dir+0x10>
 378:	67 c0       	rjmp	.+206    	; 0x448 <__DATA_REGION_LENGTH__+0x48>
 37a:	e6 5d       	subi	r30, 0xD6	; 214
 37c:	ff 4f       	sbci	r31, 0xFF	; 255
 37e:	0c 94 65 05 	jmp	0xaca	; 0xaca <__tablejump2__>
 382:	41 30       	cpi	r20, 0x01	; 1
 384:	59 f4       	brne	.+22     	; 0x39c <DIO_set_bit_dir+0x32>
 386:	2a b3       	in	r18, 0x1a	; 26
 388:	81 e0       	ldi	r24, 0x01	; 1
 38a:	90 e0       	ldi	r25, 0x00	; 0
 38c:	02 c0       	rjmp	.+4      	; 0x392 <DIO_set_bit_dir+0x28>
 38e:	88 0f       	add	r24, r24
 390:	99 1f       	adc	r25, r25
 392:	6a 95       	dec	r22
 394:	e2 f7       	brpl	.-8      	; 0x38e <DIO_set_bit_dir+0x24>
 396:	82 2b       	or	r24, r18
 398:	8a bb       	out	0x1a, r24	; 26
 39a:	08 95       	ret
 39c:	2a b3       	in	r18, 0x1a	; 26
 39e:	81 e0       	ldi	r24, 0x01	; 1
 3a0:	90 e0       	ldi	r25, 0x00	; 0
 3a2:	02 c0       	rjmp	.+4      	; 0x3a8 <DIO_set_bit_dir+0x3e>
 3a4:	88 0f       	add	r24, r24
 3a6:	99 1f       	adc	r25, r25
 3a8:	6a 95       	dec	r22
 3aa:	e2 f7       	brpl	.-8      	; 0x3a4 <DIO_set_bit_dir+0x3a>
 3ac:	80 95       	com	r24
 3ae:	82 23       	and	r24, r18
 3b0:	8a bb       	out	0x1a, r24	; 26
 3b2:	08 95       	ret
 3b4:	41 30       	cpi	r20, 0x01	; 1
 3b6:	59 f4       	brne	.+22     	; 0x3ce <DIO_set_bit_dir+0x64>
 3b8:	27 b3       	in	r18, 0x17	; 23
 3ba:	81 e0       	ldi	r24, 0x01	; 1
 3bc:	90 e0       	ldi	r25, 0x00	; 0
 3be:	02 c0       	rjmp	.+4      	; 0x3c4 <DIO_set_bit_dir+0x5a>
 3c0:	88 0f       	add	r24, r24
 3c2:	99 1f       	adc	r25, r25
 3c4:	6a 95       	dec	r22
 3c6:	e2 f7       	brpl	.-8      	; 0x3c0 <DIO_set_bit_dir+0x56>
 3c8:	82 2b       	or	r24, r18
 3ca:	87 bb       	out	0x17, r24	; 23
 3cc:	08 95       	ret
 3ce:	27 b3       	in	r18, 0x17	; 23
 3d0:	81 e0       	ldi	r24, 0x01	; 1
 3d2:	90 e0       	ldi	r25, 0x00	; 0
 3d4:	02 c0       	rjmp	.+4      	; 0x3da <DIO_set_bit_dir+0x70>
 3d6:	88 0f       	add	r24, r24
 3d8:	99 1f       	adc	r25, r25
 3da:	6a 95       	dec	r22
 3dc:	e2 f7       	brpl	.-8      	; 0x3d6 <DIO_set_bit_dir+0x6c>
 3de:	80 95       	com	r24
 3e0:	82 23       	and	r24, r18
 3e2:	87 bb       	out	0x17, r24	; 23
 3e4:	08 95       	ret
 3e6:	41 30       	cpi	r20, 0x01	; 1
 3e8:	59 f4       	brne	.+22     	; 0x400 <__DATA_REGION_LENGTH__>
 3ea:	24 b3       	in	r18, 0x14	; 20
 3ec:	81 e0       	ldi	r24, 0x01	; 1
 3ee:	90 e0       	ldi	r25, 0x00	; 0
 3f0:	02 c0       	rjmp	.+4      	; 0x3f6 <DIO_set_bit_dir+0x8c>
 3f2:	88 0f       	add	r24, r24
 3f4:	99 1f       	adc	r25, r25
 3f6:	6a 95       	dec	r22
 3f8:	e2 f7       	brpl	.-8      	; 0x3f2 <DIO_set_bit_dir+0x88>
 3fa:	82 2b       	or	r24, r18
 3fc:	84 bb       	out	0x14, r24	; 20
 3fe:	08 95       	ret
 400:	24 b3       	in	r18, 0x14	; 20
 402:	81 e0       	ldi	r24, 0x01	; 1
 404:	90 e0       	ldi	r25, 0x00	; 0
 406:	02 c0       	rjmp	.+4      	; 0x40c <__DATA_REGION_LENGTH__+0xc>
 408:	88 0f       	add	r24, r24
 40a:	99 1f       	adc	r25, r25
 40c:	6a 95       	dec	r22
 40e:	e2 f7       	brpl	.-8      	; 0x408 <__DATA_REGION_LENGTH__+0x8>
 410:	80 95       	com	r24
 412:	82 23       	and	r24, r18
 414:	84 bb       	out	0x14, r24	; 20
 416:	08 95       	ret
 418:	41 30       	cpi	r20, 0x01	; 1
 41a:	59 f4       	brne	.+22     	; 0x432 <__DATA_REGION_LENGTH__+0x32>
 41c:	21 b3       	in	r18, 0x11	; 17
 41e:	81 e0       	ldi	r24, 0x01	; 1
 420:	90 e0       	ldi	r25, 0x00	; 0
 422:	02 c0       	rjmp	.+4      	; 0x428 <__DATA_REGION_LENGTH__+0x28>
 424:	88 0f       	add	r24, r24
 426:	99 1f       	adc	r25, r25
 428:	6a 95       	dec	r22
 42a:	e2 f7       	brpl	.-8      	; 0x424 <__DATA_REGION_LENGTH__+0x24>
 42c:	82 2b       	or	r24, r18
 42e:	81 bb       	out	0x11, r24	; 17
 430:	08 95       	ret
 432:	21 b3       	in	r18, 0x11	; 17
 434:	81 e0       	ldi	r24, 0x01	; 1
 436:	90 e0       	ldi	r25, 0x00	; 0
 438:	02 c0       	rjmp	.+4      	; 0x43e <__DATA_REGION_LENGTH__+0x3e>
 43a:	88 0f       	add	r24, r24
 43c:	99 1f       	adc	r25, r25
 43e:	6a 95       	dec	r22
 440:	e2 f7       	brpl	.-8      	; 0x43a <__DATA_REGION_LENGTH__+0x3a>
 442:	80 95       	com	r24
 444:	82 23       	and	r24, r18
 446:	81 bb       	out	0x11, r24	; 17
 448:	08 95       	ret

Disassembly of section .text.DIO_write_bit:

0000044a <DIO_write_bit>:
 44a:	90 e0       	ldi	r25, 0x00	; 0
 44c:	fc 01       	movw	r30, r24
 44e:	e1 54       	subi	r30, 0x41	; 65
 450:	f1 09       	sbc	r31, r1
 452:	e4 32       	cpi	r30, 0x24	; 36
 454:	f1 05       	cpc	r31, r1
 456:	08 f0       	brcs	.+2      	; 0x45a <DIO_write_bit+0x10>
 458:	67 c0       	rjmp	.+206    	; 0x528 <__stack+0xc9>
 45a:	e2 5b       	subi	r30, 0xB2	; 178
 45c:	ff 4f       	sbci	r31, 0xFF	; 255
 45e:	0c 94 65 05 	jmp	0xaca	; 0xaca <__tablejump2__>
 462:	41 30       	cpi	r20, 0x01	; 1
 464:	59 f4       	brne	.+22     	; 0x47c <__stack+0x1d>
 466:	2b b3       	in	r18, 0x1b	; 27
 468:	81 e0       	ldi	r24, 0x01	; 1
 46a:	90 e0       	ldi	r25, 0x00	; 0
 46c:	02 c0       	rjmp	.+4      	; 0x472 <__stack+0x13>
 46e:	88 0f       	add	r24, r24
 470:	99 1f       	adc	r25, r25
 472:	6a 95       	dec	r22
 474:	e2 f7       	brpl	.-8      	; 0x46e <__stack+0xf>
 476:	82 2b       	or	r24, r18
 478:	8b bb       	out	0x1b, r24	; 27
 47a:	08 95       	ret
 47c:	2b b3       	in	r18, 0x1b	; 27
 47e:	81 e0       	ldi	r24, 0x01	; 1
 480:	90 e0       	ldi	r25, 0x00	; 0
 482:	02 c0       	rjmp	.+4      	; 0x488 <__stack+0x29>
 484:	88 0f       	add	r24, r24
 486:	99 1f       	adc	r25, r25
 488:	6a 95       	dec	r22
 48a:	e2 f7       	brpl	.-8      	; 0x484 <__stack+0x25>
 48c:	80 95       	com	r24
 48e:	82 23       	and	r24, r18
 490:	8b bb       	out	0x1b, r24	; 27
 492:	08 95       	ret
 494:	41 30       	cpi	r20, 0x01	; 1
 496:	59 f4       	brne	.+22     	; 0x4ae <__stack+0x4f>
 498:	28 b3       	in	r18, 0x18	; 24
 49a:	81 e0       	ldi	r24, 0x01	; 1
 49c:	90 e0       	ldi	r25, 0x00	; 0
 49e:	02 c0       	rjmp	.+4      	; 0x4a4 <__stack+0x45>
 4a0:	88 0f       	add	r24, r24
 4a2:	99 1f       	adc	r25, r25
 4a4:	6a 95       	dec	r22
 4a6:	e2 f7       	brpl	.-8      	; 0x4a0 <__stack+0x41>
 4a8:	82 2b       	or	r24, r18
 4aa:	88 bb       	out	0x18, r24	; 24
 4ac:	08 95       	ret
 4ae:	28 b3       	in	r18, 0x18	; 24
 4b0:	81 e0       	ldi	r24, 0x01	; 1
 4b2:	90 e0       	ldi	r25, 0x00	; 0
 4b4:	02 c0       	rjmp	.+4      	; 0x4ba <__stack+0x5b>
 4b6:	88 0f       	add	r24, r24
 4b8:	99 1f       	adc	r25, r25
 4ba:	6a 95       	dec	r22
 4bc:	e2 f7       	brpl	.-8      	; 0x4b6 <__stack+0x57>
 4be:	80 95       	com	r24
 4c0:	82 23       	and	r24, r18
 4c2:	88 bb       	out	0x18, r24	; 24
 4c4:	08 95       	ret
 4c6:	41 30       	cpi	r20, 0x01	; 1
 4c8:	59 f4       	brne	.+22     	; 0x4e0 <__stack+0x81>
 4ca:	25 b3       	in	r18, 0x15	; 21
 4cc:	81 e0       	ldi	r24, 0x01	; 1
 4ce:	90 e0       	ldi	r25, 0x00	; 0
 4d0:	02 c0       	rjmp	.+4      	; 0x4d6 <__stack+0x77>
 4d2:	88 0f       	add	r24, r24
 4d4:	99 1f       	adc	r25, r25
 4d6:	6a 95       	dec	r22
 4d8:	e2 f7       	brpl	.-8      	; 0x4d2 <__stack+0x73>
 4da:	82 2b       	or	r24, r18
 4dc:	85 bb       	out	0x15, r24	; 21
 4de:	08 95       	ret
 4e0:	25 b3       	in	r18, 0x15	; 21
 4e2:	81 e0       	ldi	r24, 0x01	; 1
 4e4:	90 e0       	ldi	r25, 0x00	; 0
 4e6:	02 c0       	rjmp	.+4      	; 0x4ec <__stack+0x8d>
 4e8:	88 0f       	add	r24, r24
 4ea:	99 1f       	adc	r25, r25
 4ec:	6a 95       	dec	r22
 4ee:	e2 f7       	brpl	.-8      	; 0x4e8 <__stack+0x89>
 4f0:	80 95       	com	r24
 4f2:	82 23       	and	r24, r18
 4f4:	85 bb       	out	0x15, r24	; 21
 4f6:	08 95       	ret
 4f8:	41 30       	cpi	r20, 0x01	; 1
 4fa:	59 f4       	brne	.+22     	; 0x512 <__stack+0xb3>
 4fc:	22 b3       	in	r18, 0x12	; 18
 4fe:	81 e0       	ldi	r24, 0x01	; 1
 500:	90 e0       	ldi	r25, 0x00	; 0
 502:	02 c0       	rjmp	.+4      	; 0x508 <__stack+0xa9>
 504:	88 0f       	add	r24, r24
 506:	99 1f       	adc	r25, r25
 508:	6a 95       	dec	r22
 50a:	e2 f7       	brpl	.-8      	; 0x504 <__stack+0xa5>
 50c:	82 2b       	or	r24, r18
 50e:	82 bb       	out	0x12, r24	; 18
 510:	08 95       	ret
 512:	22 b3       	in	r18, 0x12	; 18
 514:	81 e0       	ldi	r24, 0x01	; 1
 516:	90 e0       	ldi	r25, 0x00	; 0
 518:	02 c0       	rjmp	.+4      	; 0x51e <__stack+0xbf>
 51a:	88 0f       	add	r24, r24
 51c:	99 1f       	adc	r25, r25
 51e:	6a 95       	dec	r22
 520:	e2 f7       	brpl	.-8      	; 0x51a <__stack+0xbb>
 522:	80 95       	com	r24
 524:	82 23       	and	r24, r18
 526:	82 bb       	out	0x12, r24	; 18
 528:	08 95       	ret

Disassembly of section .text.DIO_read_bit_u8:

0000052a <DIO_read_bit_u8>:
 52a:	0f 93       	push	r16
 52c:	1f 93       	push	r17
 52e:	08 2f       	mov	r16, r24
 530:	10 e0       	ldi	r17, 0x00	; 0
 532:	f8 01       	movw	r30, r16
 534:	e1 54       	subi	r30, 0x41	; 65
 536:	f1 09       	sbc	r31, r1
 538:	e4 32       	cpi	r30, 0x24	; 36
 53a:	f1 05       	cpc	r31, r1
 53c:	08 f0       	brcs	.+2      	; 0x540 <DIO_read_bit_u8+0x16>
 53e:	57 c0       	rjmp	.+174    	; 0x5ee <DIO_read_bit_u8+0xc4>
 540:	ee 58       	subi	r30, 0x8E	; 142
 542:	ff 4f       	sbci	r31, 0xFF	; 255
 544:	0c 94 65 05 	jmp	0xaca	; 0xaca <__tablejump2__>
 548:	49 b3       	in	r20, 0x19	; 25
 54a:	81 e0       	ldi	r24, 0x01	; 1
 54c:	90 e0       	ldi	r25, 0x00	; 0
 54e:	9c 01       	movw	r18, r24
 550:	06 2e       	mov	r0, r22
 552:	02 c0       	rjmp	.+4      	; 0x558 <DIO_read_bit_u8+0x2e>
 554:	22 0f       	add	r18, r18
 556:	33 1f       	adc	r19, r19
 558:	0a 94       	dec	r0
 55a:	e2 f7       	brpl	.-8      	; 0x554 <DIO_read_bit_u8+0x2a>
 55c:	84 2f       	mov	r24, r20
 55e:	90 e0       	ldi	r25, 0x00	; 0
 560:	82 23       	and	r24, r18
 562:	93 23       	and	r25, r19
 564:	02 c0       	rjmp	.+4      	; 0x56a <DIO_read_bit_u8+0x40>
 566:	95 95       	asr	r25
 568:	87 95       	ror	r24
 56a:	6a 95       	dec	r22
 56c:	e2 f7       	brpl	.-8      	; 0x566 <DIO_read_bit_u8+0x3c>
 56e:	98 2f       	mov	r25, r24
 570:	3e c0       	rjmp	.+124    	; 0x5ee <DIO_read_bit_u8+0xc4>
 572:	46 b3       	in	r20, 0x16	; 22
 574:	81 e0       	ldi	r24, 0x01	; 1
 576:	90 e0       	ldi	r25, 0x00	; 0
 578:	9c 01       	movw	r18, r24
 57a:	06 2e       	mov	r0, r22
 57c:	02 c0       	rjmp	.+4      	; 0x582 <DIO_read_bit_u8+0x58>
 57e:	22 0f       	add	r18, r18
 580:	33 1f       	adc	r19, r19
 582:	0a 94       	dec	r0
 584:	e2 f7       	brpl	.-8      	; 0x57e <DIO_read_bit_u8+0x54>
 586:	84 2f       	mov	r24, r20
 588:	90 e0       	ldi	r25, 0x00	; 0
 58a:	82 23       	and	r24, r18
 58c:	93 23       	and	r25, r19
 58e:	02 c0       	rjmp	.+4      	; 0x594 <DIO_read_bit_u8+0x6a>
 590:	95 95       	asr	r25
 592:	87 95       	ror	r24
 594:	6a 95       	dec	r22
 596:	e2 f7       	brpl	.-8      	; 0x590 <DIO_read_bit_u8+0x66>
 598:	98 2f       	mov	r25, r24
 59a:	29 c0       	rjmp	.+82     	; 0x5ee <DIO_read_bit_u8+0xc4>
 59c:	43 b3       	in	r20, 0x13	; 19
 59e:	81 e0       	ldi	r24, 0x01	; 1
 5a0:	90 e0       	ldi	r25, 0x00	; 0
 5a2:	9c 01       	movw	r18, r24
 5a4:	06 2e       	mov	r0, r22
 5a6:	02 c0       	rjmp	.+4      	; 0x5ac <DIO_read_bit_u8+0x82>
 5a8:	22 0f       	add	r18, r18
 5aa:	33 1f       	adc	r19, r19
 5ac:	0a 94       	dec	r0
 5ae:	e2 f7       	brpl	.-8      	; 0x5a8 <DIO_read_bit_u8+0x7e>
 5b0:	84 2f       	mov	r24, r20
 5b2:	90 e0       	ldi	r25, 0x00	; 0
 5b4:	82 23       	and	r24, r18
 5b6:	93 23       	and	r25, r19
 5b8:	02 c0       	rjmp	.+4      	; 0x5be <DIO_read_bit_u8+0x94>
 5ba:	95 95       	asr	r25
 5bc:	87 95       	ror	r24
 5be:	6a 95       	dec	r22
 5c0:	e2 f7       	brpl	.-8      	; 0x5ba <DIO_read_bit_u8+0x90>
 5c2:	98 2f       	mov	r25, r24
 5c4:	14 c0       	rjmp	.+40     	; 0x5ee <DIO_read_bit_u8+0xc4>
 5c6:	40 b3       	in	r20, 0x10	; 16
 5c8:	81 e0       	ldi	r24, 0x01	; 1
 5ca:	90 e0       	ldi	r25, 0x00	; 0
 5cc:	9c 01       	movw	r18, r24
 5ce:	06 2e       	mov	r0, r22
 5d0:	02 c0       	rjmp	.+4      	; 0x5d6 <DIO_read_bit_u8+0xac>
 5d2:	22 0f       	add	r18, r18
 5d4:	33 1f       	adc	r19, r19
 5d6:	0a 94       	dec	r0
 5d8:	e2 f7       	brpl	.-8      	; 0x5d2 <DIO_read_bit_u8+0xa8>
 5da:	84 2f       	mov	r24, r20
 5dc:	90 e0       	ldi	r25, 0x00	; 0
 5de:	82 23       	and	r24, r18
 5e0:	93 23       	and	r25, r19
 5e2:	02 c0       	rjmp	.+4      	; 0x5e8 <DIO_read_bit_u8+0xbe>
 5e4:	95 95       	asr	r25
 5e6:	87 95       	ror	r24
 5e8:	6a 95       	dec	r22
 5ea:	e2 f7       	brpl	.-8      	; 0x5e4 <DIO_read_bit_u8+0xba>
 5ec:	98 2f       	mov	r25, r24
 5ee:	89 2f       	mov	r24, r25
 5f0:	1f 91       	pop	r17
 5f2:	0f 91       	pop	r16
 5f4:	08 95       	ret

Disassembly of section .text.DIO_set_dir:

00000a50 <DIO_set_dir>:
 a50:	90 e0       	ldi	r25, 0x00	; 0
 a52:	fc 01       	movw	r30, r24
 a54:	e1 54       	subi	r30, 0x41	; 65
 a56:	f1 09       	sbc	r31, r1
 a58:	e4 32       	cpi	r30, 0x24	; 36
 a5a:	f1 05       	cpc	r31, r1
 a5c:	58 f4       	brcc	.+22     	; 0xa74 <DIO_set_dir+0x24>
 a5e:	ea 56       	subi	r30, 0x6A	; 106
 a60:	ff 4f       	sbci	r31, 0xFF	; 255
 a62:	0c 94 65 05 	jmp	0xaca	; 0xaca <__tablejump2__>
 a66:	6a bb       	out	0x1a, r22	; 26
 a68:	08 95       	ret
 a6a:	67 bb       	out	0x17, r22	; 23
 a6c:	08 95       	ret
 a6e:	64 bb       	out	0x14, r22	; 20
 a70:	08 95       	ret
 a72:	61 bb       	out	0x11, r22	; 17
 a74:	08 95       	ret

Disassembly of section .text.DIO_write_port:

00000a76 <DIO_write_port>:
 a76:	90 e0       	ldi	r25, 0x00	; 0
 a78:	fc 01       	movw	r30, r24
 a7a:	e1 54       	subi	r30, 0x41	; 65
 a7c:	f1 09       	sbc	r31, r1
 a7e:	e4 32       	cpi	r30, 0x24	; 36
 a80:	f1 05       	cpc	r31, r1
 a82:	58 f4       	brcc	.+22     	; 0xa9a <DIO_write_port+0x24>
 a84:	e6 54       	subi	r30, 0x46	; 70
 a86:	ff 4f       	sbci	r31, 0xFF	; 255
 a88:	0c 94 65 05 	jmp	0xaca	; 0xaca <__tablejump2__>
 a8c:	6b bb       	out	0x1b, r22	; 27
 a8e:	08 95       	ret
 a90:	68 bb       	out	0x18, r22	; 24
 a92:	08 95       	ret
 a94:	65 bb       	out	0x15, r22	; 21
 a96:	08 95       	ret
 a98:	62 bb       	out	0x12, r22	; 18
 a9a:	08 95       	ret

Disassembly of section .text.LCD_send_char:

00000858 <LCD_send_char>:
 858:	ef 92       	push	r14
 85a:	ff 92       	push	r15
 85c:	0f 93       	push	r16
 85e:	1f 93       	push	r17
 860:	cf 93       	push	r28
 862:	df 93       	push	r29
 864:	f8 2e       	mov	r15, r24
 866:	16 2f       	mov	r17, r22
 868:	c4 2f       	mov	r28, r20
 86a:	d2 2f       	mov	r29, r18
 86c:	80 2f       	mov	r24, r16
 86e:	6e 2d       	mov	r22, r14
 870:	41 e0       	ldi	r20, 0x01	; 1
 872:	0e 94 25 02 	call	0x44a	; 0x44a <DIO_write_bit>
 876:	6f 2d       	mov	r22, r15
 878:	81 2f       	mov	r24, r17
 87a:	0e 94 3b 05 	call	0xa76	; 0xa76 <DIO_write_port>
 87e:	41 e0       	ldi	r20, 0x01	; 1
 880:	6d 2f       	mov	r22, r29
 882:	8c 2f       	mov	r24, r28
 884:	0e 94 25 02 	call	0x44a	; 0x44a <DIO_write_bit>
 888:	89 ef       	ldi	r24, 0xF9	; 249
 88a:	90 e0       	ldi	r25, 0x00	; 0
 88c:	01 97       	sbiw	r24, 0x01	; 1
 88e:	f1 f7       	brne	.-4      	; 0x88c <LCD_send_char+0x34>
 890:	00 c0       	rjmp	.+0      	; 0x892 <LCD_send_char+0x3a>
 892:	00 00       	nop
 894:	40 e0       	ldi	r20, 0x00	; 0
 896:	6d 2f       	mov	r22, r29
 898:	8c 2f       	mov	r24, r28
 89a:	0e 94 25 02 	call	0x44a	; 0x44a <DIO_write_bit>
 89e:	89 ef       	ldi	r24, 0xF9	; 249
 8a0:	90 e0       	ldi	r25, 0x00	; 0
 8a2:	01 97       	sbiw	r24, 0x01	; 1
 8a4:	f1 f7       	brne	.-4      	; 0x8a2 <LCD_send_char+0x4a>
 8a6:	00 c0       	rjmp	.+0      	; 0x8a8 <LCD_send_char+0x50>
 8a8:	00 00       	nop
 8aa:	df 91       	pop	r29
 8ac:	cf 91       	pop	r28
 8ae:	1f 91       	pop	r17
 8b0:	0f 91       	pop	r16
 8b2:	ff 90       	pop	r15
 8b4:	ef 90       	pop	r14
 8b6:	08 95       	ret

Disassembly of section .text.LCD_send_cmd:

000008b8 <LCD_send_cmd>:
 8b8:	ef 92       	push	r14
 8ba:	ff 92       	push	r15
 8bc:	0f 93       	push	r16
 8be:	1f 93       	push	r17
 8c0:	cf 93       	push	r28
 8c2:	df 93       	push	r29
 8c4:	f8 2e       	mov	r15, r24
 8c6:	16 2f       	mov	r17, r22
 8c8:	c4 2f       	mov	r28, r20
 8ca:	d2 2f       	mov	r29, r18
 8cc:	80 2f       	mov	r24, r16
 8ce:	6e 2d       	mov	r22, r14
 8d0:	40 e0       	ldi	r20, 0x00	; 0
 8d2:	0e 94 25 02 	call	0x44a	; 0x44a <DIO_write_bit>
 8d6:	6f 2d       	mov	r22, r15
 8d8:	81 2f       	mov	r24, r17
 8da:	0e 94 3b 05 	call	0xa76	; 0xa76 <DIO_write_port>
 8de:	41 e0       	ldi	r20, 0x01	; 1
 8e0:	6d 2f       	mov	r22, r29
 8e2:	8c 2f       	mov	r24, r28
 8e4:	0e 94 25 02 	call	0x44a	; 0x44a <DIO_write_bit>
 8e8:	89 ef       	ldi	r24, 0xF9	; 249
 8ea:	90 e0       	ldi	r25, 0x00	; 0
 8ec:	01 97       	sbiw	r24, 0x01	; 1
 8ee:	f1 f7       	brne	.-4      	; 0x8ec <LCD_send_cmd+0x34>
 8f0:	00 c0       	rjmp	.+0      	; 0x8f2 <LCD_send_cmd+0x3a>
 8f2:	00 00       	nop
 8f4:	40 e0       	ldi	r20, 0x00	; 0
 8f6:	6d 2f       	mov	r22, r29
 8f8:	8c 2f       	mov	r24, r28
 8fa:	0e 94 25 02 	call	0x44a	; 0x44a <DIO_write_bit>
 8fe:	87 eb       	ldi	r24, 0xB7	; 183
 900:	9b e0       	ldi	r25, 0x0B	; 11
 902:	01 97       	sbiw	r24, 0x01	; 1
 904:	f1 f7       	brne	.-4      	; 0x902 <LCD_send_cmd+0x4a>
 906:	00 c0       	rjmp	.+0      	; 0x908 <LCD_send_cmd+0x50>
 908:	00 00       	nop
 90a:	df 91       	pop	r29
 90c:	cf 91       	pop	r28
 90e:	1f 91       	pop	r17
 910:	0f 91       	pop	r16
 912:	ff 90       	pop	r15
 914:	ef 90       	pop	r14
 916:	08 95       	ret

Disassembly of section .text.LCD_inatialize:

000005f6 <LCD_inatialize>:
 5f6:	df 92       	push	r13
 5f8:	ef 92       	push	r14
 5fa:	ff 92       	push	r15
 5fc:	0f 93       	push	r16
 5fe:	1f 93       	push	r17
 600:	cf 93       	push	r28
 602:	df 93       	push	r29
 604:	c8 2f       	mov	r28, r24
 606:	d6 2f       	mov	r29, r22
 608:	14 2f       	mov	r17, r20
 60a:	f2 2e       	mov	r15, r18
 60c:	6f ef       	ldi	r22, 0xFF	; 255
 60e:	0e 94 28 05 	call	0xa50	; 0xa50 <DIO_set_dir>
 612:	41 e0       	ldi	r20, 0x01	; 1
 614:	60 2f       	mov	r22, r16
 616:	8f 2d       	mov	r24, r15
 618:	0e 94 b5 01 	call	0x36a	; 0x36a <DIO_set_bit_dir>
 61c:	41 e0       	ldi	r20, 0x01	; 1
 61e:	61 2f       	mov	r22, r17
 620:	8d 2f       	mov	r24, r29
 622:	0e 94 b5 01 	call	0x36a	; 0x36a <DIO_set_bit_dir>
 626:	8f e4       	ldi	r24, 0x4F	; 79
 628:	93 ec       	ldi	r25, 0xC3	; 195
 62a:	01 97       	sbiw	r24, 0x01	; 1
 62c:	f1 f7       	brne	.-4      	; 0x62a <LCD_inatialize+0x34>
 62e:	00 c0       	rjmp	.+0      	; 0x630 <LCD_inatialize+0x3a>
 630:	00 00       	nop
 632:	e0 2e       	mov	r14, r16
 634:	0f 2d       	mov	r16, r15
 636:	21 2f       	mov	r18, r17
 638:	4d 2f       	mov	r20, r29
 63a:	6c 2f       	mov	r22, r28
 63c:	88 e3       	ldi	r24, 0x38	; 56
 63e:	0e 94 5c 04 	call	0x8b8	; 0x8b8 <LCD_send_cmd>
 642:	89 ef       	ldi	r24, 0xF9	; 249
 644:	90 e0       	ldi	r25, 0x00	; 0
 646:	01 97       	sbiw	r24, 0x01	; 1
 648:	f1 f7       	brne	.-4      	; 0x646 <LCD_inatialize+0x50>
 64a:	00 c0       	rjmp	.+0      	; 0x64c <LCD_inatialize+0x56>
 64c:	00 00       	nop
 64e:	21 2f       	mov	r18, r17
 650:	4d 2f       	mov	r20, r29
 652:	6c 2f       	mov	r22, r28
 654:	8e e0       	ldi	r24, 0x0E	; 14
 656:	0e 94 5c 04 	call	0x8b8	; 0x8b8 <LCD_send_cmd>
 65a:	89 ef       	ldi	r24, 0xF9	; 249
 65c:	90 e0       	ldi	r25, 0x00	; 0
 65e:	01 97       	sbiw	r24, 0x01	; 1
 660:	f1 f7       	brne	.-4      	; 0x65e <LCD_inatialize+0x68>
 662:	00 c0       	rjmp	.+0      	; 0x664 <LCD_inatialize+0x6e>
 664:	00 00       	nop
 666:	21 2f       	mov	r18, r17
 668:	4d 2f       	mov	r20, r29
 66a:	6c 2f       	mov	r22, r28
 66c:	81 e0       	ldi	r24, 0x01	; 1
 66e:	0e 94 5c 04 	call	0x8b8	; 0x8b8 <LCD_send_cmd>
 672:	83 ec       	ldi	r24, 0xC3	; 195
 674:	99 e0       	ldi	r25, 0x09	; 9
 676:	01 97       	sbiw	r24, 0x01	; 1
 678:	f1 f7       	brne	.-4      	; 0x676 <LCD_inatialize+0x80>
 67a:	00 c0       	rjmp	.+0      	; 0x67c <LCD_inatialize+0x86>
 67c:	00 00       	nop
 67e:	21 2f       	mov	r18, r17
 680:	4d 2f       	mov	r20, r29
 682:	6c 2f       	mov	r22, r28
 684:	86 e0       	ldi	r24, 0x06	; 6
 686:	0e 94 5c 04 	call	0x8b8	; 0x8b8 <LCD_send_cmd>
 68a:	89 ef       	ldi	r24, 0xF9	; 249
 68c:	90 e0       	ldi	r25, 0x00	; 0
 68e:	01 97       	sbiw	r24, 0x01	; 1
 690:	f1 f7       	brne	.-4      	; 0x68e <LCD_inatialize+0x98>
 692:	00 c0       	rjmp	.+0      	; 0x694 <LCD_inatialize+0x9e>
 694:	00 00       	nop
 696:	df 91       	pop	r29
 698:	cf 91       	pop	r28
 69a:	1f 91       	pop	r17
 69c:	0f 91       	pop	r16
 69e:	ff 90       	pop	r15
 6a0:	ef 90       	pop	r14
 6a2:	df 90       	pop	r13
 6a4:	08 95       	ret

Disassembly of section .text.LCD_send_Snum:

000006a6 <LCD_send_Snum>:
 6a6:	af 92       	push	r10
 6a8:	bf 92       	push	r11
 6aa:	cf 92       	push	r12
 6ac:	df 92       	push	r13
 6ae:	ef 92       	push	r14
 6b0:	ff 92       	push	r15
 6b2:	0f 93       	push	r16
 6b4:	1f 93       	push	r17
 6b6:	cf 93       	push	r28
 6b8:	df 93       	push	r29
 6ba:	cd b7       	in	r28, 0x3d	; 61
 6bc:	de b7       	in	r29, 0x3e	; 62
 6be:	2f 97       	sbiw	r28, 0x0f	; 15
 6c0:	0f b6       	in	r0, 0x3f	; 63
 6c2:	f8 94       	cli
 6c4:	de bf       	out	0x3e, r29	; 62
 6c6:	0f be       	out	0x3f, r0	; 63
 6c8:	cd bf       	out	0x3d, r28	; 61
 6ca:	a4 2e       	mov	r10, r20
 6cc:	b2 2e       	mov	r11, r18
 6ce:	d0 2e       	mov	r13, r16
 6d0:	fe 2c       	mov	r15, r14
 6d2:	10 e0       	ldi	r17, 0x00	; 0
 6d4:	2a e0       	ldi	r18, 0x0A	; 10
 6d6:	30 e0       	ldi	r19, 0x00	; 0
 6d8:	40 e0       	ldi	r20, 0x00	; 0
 6da:	50 e0       	ldi	r21, 0x00	; 0
 6dc:	0e 94 11 05 	call	0xa22	; 0xa22 <__divmodsi4>
 6e0:	e1 e0       	ldi	r30, 0x01	; 1
 6e2:	f0 e0       	ldi	r31, 0x00	; 0
 6e4:	ec 0f       	add	r30, r28
 6e6:	fd 1f       	adc	r31, r29
 6e8:	e1 0f       	add	r30, r17
 6ea:	f1 1d       	adc	r31, r1
 6ec:	17 fd       	sbrc	r17, 7
 6ee:	fa 95       	dec	r31
 6f0:	60 83       	st	Z, r22
 6f2:	62 2f       	mov	r22, r18
 6f4:	73 2f       	mov	r23, r19
 6f6:	84 2f       	mov	r24, r20
 6f8:	95 2f       	mov	r25, r21
 6fa:	61 15       	cp	r22, r1
 6fc:	71 05       	cpc	r23, r1
 6fe:	81 05       	cpc	r24, r1
 700:	91 05       	cpc	r25, r1
 702:	a1 f0       	breq	.+40     	; 0x72c <LCD_send_Snum+0x86>
 704:	1f 5f       	subi	r17, 0xFF	; 255
 706:	e6 cf       	rjmp	.-52     	; 0x6d4 <LCD_send_Snum+0x2e>
 708:	e1 e0       	ldi	r30, 0x01	; 1
 70a:	f0 e0       	ldi	r31, 0x00	; 0
 70c:	ec 0f       	add	r30, r28
 70e:	fd 1f       	adc	r31, r29
 710:	e1 0f       	add	r30, r17
 712:	f1 1d       	adc	r31, r1
 714:	17 fd       	sbrc	r17, 7
 716:	fa 95       	dec	r31
 718:	80 81       	ld	r24, Z
 71a:	ec 2c       	mov	r14, r12
 71c:	0f 2d       	mov	r16, r15
 71e:	2d 2d       	mov	r18, r13
 720:	4b 2d       	mov	r20, r11
 722:	6a 2d       	mov	r22, r10
 724:	80 5d       	subi	r24, 0xD0	; 208
 726:	0e 94 2c 04 	call	0x858	; 0x858 <LCD_send_char>
 72a:	11 50       	subi	r17, 0x01	; 1
 72c:	11 23       	and	r17, r17
 72e:	64 f7       	brge	.-40     	; 0x708 <LCD_send_Snum+0x62>
 730:	2f 96       	adiw	r28, 0x0f	; 15
 732:	0f b6       	in	r0, 0x3f	; 63
 734:	f8 94       	cli
 736:	de bf       	out	0x3e, r29	; 62
 738:	0f be       	out	0x3f, r0	; 63
 73a:	cd bf       	out	0x3d, r28	; 61
 73c:	df 91       	pop	r29
 73e:	cf 91       	pop	r28
 740:	1f 91       	pop	r17
 742:	0f 91       	pop	r16
 744:	ff 90       	pop	r15
 746:	ef 90       	pop	r14
 748:	df 90       	pop	r13
 74a:	cf 90       	pop	r12
 74c:	bf 90       	pop	r11
 74e:	af 90       	pop	r10
 750:	08 95       	ret

Disassembly of section .text.LCD_move_cursor:

00000918 <LCD_move_cursor>:
 918:	cf 92       	push	r12
 91a:	ef 92       	push	r14
 91c:	0f 93       	push	r16
 91e:	94 2f       	mov	r25, r20
 920:	42 2f       	mov	r20, r18
 922:	20 2f       	mov	r18, r16
 924:	0e 2d       	mov	r16, r14
 926:	ec 2c       	mov	r14, r12
 928:	3f ef       	ldi	r19, 0xFF	; 255
 92a:	38 0f       	add	r19, r24
 92c:	32 30       	cpi	r19, 0x02	; 2
 92e:	70 f4       	brcc	.+28     	; 0x94c <LCD_move_cursor+0x34>
 930:	61 31       	cpi	r22, 0x11	; 17
 932:	70 f4       	brcc	.+28     	; 0x950 <LCD_move_cursor+0x38>
 934:	66 23       	and	r22, r22
 936:	71 f0       	breq	.+28     	; 0x954 <LCD_move_cursor+0x3c>
 938:	81 30       	cpi	r24, 0x01	; 1
 93a:	19 f4       	brne	.+6      	; 0x942 <LCD_move_cursor+0x2a>
 93c:	5f e7       	ldi	r21, 0x7F	; 127
 93e:	56 0f       	add	r21, r22
 940:	0a c0       	rjmp	.+20     	; 0x956 <LCD_move_cursor+0x3e>
 942:	82 30       	cpi	r24, 0x02	; 2
 944:	41 f4       	brne	.+16     	; 0x956 <LCD_move_cursor+0x3e>
 946:	5f eb       	ldi	r21, 0xBF	; 191
 948:	56 0f       	add	r21, r22
 94a:	05 c0       	rjmp	.+10     	; 0x956 <LCD_move_cursor+0x3e>
 94c:	50 e8       	ldi	r21, 0x80	; 128
 94e:	03 c0       	rjmp	.+6      	; 0x956 <LCD_move_cursor+0x3e>
 950:	50 e8       	ldi	r21, 0x80	; 128
 952:	01 c0       	rjmp	.+2      	; 0x956 <LCD_move_cursor+0x3e>
 954:	50 e8       	ldi	r21, 0x80	; 128
 956:	69 2f       	mov	r22, r25
 958:	85 2f       	mov	r24, r21
 95a:	0e 94 5c 04 	call	0x8b8	; 0x8b8 <LCD_send_cmd>
 95e:	89 ef       	ldi	r24, 0xF9	; 249
 960:	90 e0       	ldi	r25, 0x00	; 0
 962:	01 97       	sbiw	r24, 0x01	; 1
 964:	f1 f7       	brne	.-4      	; 0x962 <LCD_move_cursor+0x4a>
 966:	00 c0       	rjmp	.+0      	; 0x968 <LCD_move_cursor+0x50>
 968:	00 00       	nop
 96a:	0f 91       	pop	r16
 96c:	ef 90       	pop	r14
 96e:	cf 90       	pop	r12
 970:	08 95       	ret

Disassembly of section .text.LCD_send_string:

00000752 <LCD_send_string>:
 752:	6f 92       	push	r6
 754:	7f 92       	push	r7
 756:	8f 92       	push	r8
 758:	af 92       	push	r10
 75a:	bf 92       	push	r11
 75c:	cf 92       	push	r12
 75e:	df 92       	push	r13
 760:	ef 92       	push	r14
 762:	ff 92       	push	r15
 764:	0f 93       	push	r16
 766:	1f 93       	push	r17
 768:	cf 93       	push	r28
 76a:	df 93       	push	r29
 76c:	3b 01       	movw	r6, r22
 76e:	88 2e       	mov	r8, r24
 770:	a4 2e       	mov	r10, r20
 772:	b2 2e       	mov	r11, r18
 774:	d0 2e       	mov	r13, r16
 776:	fe 2c       	mov	r15, r14
 778:	1c 2d       	mov	r17, r12
 77a:	c0 e0       	ldi	r28, 0x00	; 0
 77c:	d0 e0       	ldi	r29, 0x00	; 0
 77e:	22 c0       	rjmp	.+68     	; 0x7c4 <LCD_send_string+0x72>
 780:	c0 31       	cpi	r28, 0x10	; 16
 782:	d1 05       	cpc	r29, r1
 784:	49 f4       	brne	.+18     	; 0x798 <LCD_send_string+0x46>
 786:	c1 2e       	mov	r12, r17
 788:	ef 2c       	mov	r14, r15
 78a:	0d 2d       	mov	r16, r13
 78c:	2b 2d       	mov	r18, r11
 78e:	4a 2d       	mov	r20, r10
 790:	61 e0       	ldi	r22, 0x01	; 1
 792:	82 e0       	ldi	r24, 0x02	; 2
 794:	0e 94 8c 04 	call	0x918	; 0x918 <LCD_move_cursor>
 798:	e1 2e       	mov	r14, r17
 79a:	0f 2d       	mov	r16, r15
 79c:	2d 2d       	mov	r18, r13
 79e:	4b 2d       	mov	r20, r11
 7a0:	6a 2d       	mov	r22, r10
 7a2:	f3 01       	movw	r30, r6
 7a4:	84 91       	lpm	r24, Z
 7a6:	87 fc       	sbrc	r8, 7
 7a8:	80 81       	ld	r24, Z
 7aa:	0e 94 2c 04 	call	0x858	; 0x858 <LCD_send_char>
 7ae:	8f e4       	ldi	r24, 0x4F	; 79
 7b0:	93 ec       	ldi	r25, 0xC3	; 195
 7b2:	01 97       	sbiw	r24, 0x01	; 1
 7b4:	f1 f7       	brne	.-4      	; 0x7b2 <LCD_send_string+0x60>
 7b6:	00 c0       	rjmp	.+0      	; 0x7b8 <LCD_send_string+0x66>
 7b8:	00 00       	nop
 7ba:	9f ef       	ldi	r25, 0xFF	; 255
 7bc:	69 1a       	sub	r6, r25
 7be:	79 0a       	sbc	r7, r25
 7c0:	89 0a       	sbc	r8, r25
 7c2:	21 96       	adiw	r28, 0x01	; 1
 7c4:	f3 01       	movw	r30, r6
 7c6:	84 91       	lpm	r24, Z
 7c8:	87 fc       	sbrc	r8, 7
 7ca:	80 81       	ld	r24, Z
 7cc:	81 11       	cpse	r24, r1
 7ce:	d8 cf       	rjmp	.-80     	; 0x780 <LCD_send_string+0x2e>
 7d0:	89 ef       	ldi	r24, 0xF9	; 249
 7d2:	90 e0       	ldi	r25, 0x00	; 0
 7d4:	01 97       	sbiw	r24, 0x01	; 1
 7d6:	f1 f7       	brne	.-4      	; 0x7d4 <LCD_send_string+0x82>
 7d8:	00 c0       	rjmp	.+0      	; 0x7da <LCD_send_string+0x88>
 7da:	00 00       	nop
 7dc:	df 91       	pop	r29
 7de:	cf 91       	pop	r28
 7e0:	1f 91       	pop	r17
 7e2:	0f 91       	pop	r16
 7e4:	ff 90       	pop	r15
 7e6:	ef 90       	pop	r14
 7e8:	df 90       	pop	r13
 7ea:	cf 90       	pop	r12
 7ec:	bf 90       	pop	r11
 7ee:	af 90       	pop	r10
 7f0:	8f 90       	pop	r8
 7f2:	7f 90       	pop	r7
 7f4:	6f 90       	pop	r6
 7f6:	08 95       	ret

Disassembly of section .text.main:

00000220 <main>:


int main(void)
{
	unsigned char int_temp=0 , fraction_temp=0 , int_h=0 , fraction_h=0 , sum =0;
	LCD_inatialize('a','b',0,'b',1);
 220:	01 e0       	ldi	r16, 0x01	; 1
 222:	22 e6       	ldi	r18, 0x62	; 98
 224:	40 e0       	ldi	r20, 0x00	; 0
 226:	62 e6       	ldi	r22, 0x62	; 98
 228:	81 e6       	ldi	r24, 0x61	; 97
 22a:	0e 94 fb 02 	call	0x5f6	; 0x5f6 <LCD_inatialize>
	//DHT11_initialize('b',2);
	LCD_send_string("TEMP : ",'a','b',0,'b',1);
 22e:	cc 24       	eor	r12, r12
 230:	c3 94       	inc	r12
 232:	0f 2e       	mov	r0, r31
 234:	f2 e6       	ldi	r31, 0x62	; 98
 236:	ef 2e       	mov	r14, r31
 238:	f0 2d       	mov	r31, r0
 23a:	00 e0       	ldi	r16, 0x00	; 0
 23c:	22 e6       	ldi	r18, 0x62	; 98
 23e:	41 e6       	ldi	r20, 0x61	; 97
 240:	60 e1       	ldi	r22, 0x10	; 16
 242:	72 e0       	ldi	r23, 0x02	; 2
 244:	80 e0       	ldi	r24, 0x00	; 0
 246:	0e 94 a9 03 	call	0x752	; 0x752 <LCD_send_string>
	LCD_move_cursor(2,1,'a','b',0,'b',1);
 24a:	22 e6       	ldi	r18, 0x62	; 98
 24c:	41 e6       	ldi	r20, 0x61	; 97
 24e:	61 e0       	ldi	r22, 0x01	; 1
 250:	82 e0       	ldi	r24, 0x02	; 2
 252:	0e 94 8c 04 	call	0x918	; 0x918 <LCD_move_cursor>
	LCD_send_string("HUM : ",'a','b',0,'b',1);
 256:	22 e6       	ldi	r18, 0x62	; 98
 258:	41 e6       	ldi	r20, 0x61	; 97
 25a:	68 e1       	ldi	r22, 0x18	; 24
 25c:	72 e0       	ldi	r23, 0x02	; 2
 25e:	80 e0       	ldi	r24, 0x00	; 0
 260:	0e 94 a9 03 	call	0x752	; 0x752 <LCD_send_string>
 264:	2f e7       	ldi	r18, 0x7F	; 127
 266:	8a e1       	ldi	r24, 0x1A	; 26
 268:	96 e0       	ldi	r25, 0x06	; 6
 26a:	21 50       	subi	r18, 0x01	; 1
 26c:	80 40       	sbci	r24, 0x00	; 0
 26e:	90 40       	sbci	r25, 0x00	; 0
 270:	e1 f7       	brne	.-8      	; 0x26a <main+0x4a>
 272:	00 c0       	rjmp	.+0      	; 0x274 <main+0x54>
 274:	00 00       	nop
	
	
	while(1)
	{
		
		DHT11_send_start_signal('b',2);
 276:	62 e0       	ldi	r22, 0x02	; 2
 278:	82 e6       	ldi	r24, 0x62	; 98
 27a:	0e 94 f7 04 	call	0x9ee	; 0x9ee <DHT11_send_start_signal>
		DHT11_receive_response_signal('b',2);
 27e:	62 e0       	ldi	r22, 0x02	; 2
 280:	82 e6       	ldi	r24, 0x62	; 98
 282:	0e 94 db 04 	call	0x9b6	; 0x9b6 <DHT11_receive_response_signal>
		int_h=DHT11_read_byte('b',2);
 286:	62 e0       	ldi	r22, 0x02	; 2
 288:	82 e6       	ldi	r24, 0x62	; 98
 28a:	0e 94 fc 03 	call	0x7f8	; 0x7f8 <DHT11_read_byte>
 28e:	d8 2f       	mov	r29, r24
		fraction_h=DHT11_read_byte('b',2);
 290:	62 e0       	ldi	r22, 0x02	; 2
 292:	82 e6       	ldi	r24, 0x62	; 98
 294:	0e 94 fc 03 	call	0x7f8	; 0x7f8 <DHT11_read_byte>
 298:	c8 2f       	mov	r28, r24
		int_temp=DHT11_read_byte('b',2);
 29a:	62 e0       	ldi	r22, 0x02	; 2
 29c:	82 e6       	ldi	r24, 0x62	; 98
 29e:	0e 94 fc 03 	call	0x7f8	; 0x7f8 <DHT11_read_byte>
 2a2:	f8 2e       	mov	r15, r24
		fraction_temp=DHT11_read_byte('b',2);
 2a4:	62 e0       	ldi	r22, 0x02	; 2
 2a6:	82 e6       	ldi	r24, 0x62	; 98
 2a8:	0e 94 fc 03 	call	0x7f8	; 0x7f8 <DHT11_read_byte>
 2ac:	18 2f       	mov	r17, r24
		sum=DHT11_read_byte('b',2);
 2ae:	62 e0       	ldi	r22, 0x02	; 2
 2b0:	82 e6       	ldi	r24, 0x62	; 98
 2b2:	0e 94 fc 03 	call	0x7f8	; 0x7f8 <DHT11_read_byte>
		DHT11_stop('b',2);
 2b6:	62 e0       	ldi	r22, 0x02	; 2
 2b8:	82 e6       	ldi	r24, 0x62	; 98
 2ba:	0e 94 4e 05 	call	0xa9c	; 0xa9c <DHT11_stop>
		//--------------
		
		//------------------------------
		LCD_move_cursor(1,8,'a','b',0,'b',1);
 2be:	cc 24       	eor	r12, r12
 2c0:	c3 94       	inc	r12
 2c2:	0f 2e       	mov	r0, r31
 2c4:	f2 e6       	ldi	r31, 0x62	; 98
 2c6:	ef 2e       	mov	r14, r31
 2c8:	f0 2d       	mov	r31, r0
 2ca:	00 e0       	ldi	r16, 0x00	; 0
 2cc:	22 e6       	ldi	r18, 0x62	; 98
 2ce:	41 e6       	ldi	r20, 0x61	; 97
 2d0:	68 e0       	ldi	r22, 0x08	; 8
 2d2:	81 e0       	ldi	r24, 0x01	; 1
 2d4:	0e 94 8c 04 	call	0x918	; 0x918 <LCD_move_cursor>
		LCD_send_Snum(int_temp,'a','b',0,'b',1);
 2d8:	6f 2d       	mov	r22, r15
 2da:	70 e0       	ldi	r23, 0x00	; 0
 2dc:	80 e0       	ldi	r24, 0x00	; 0
 2de:	90 e0       	ldi	r25, 0x00	; 0
 2e0:	22 e6       	ldi	r18, 0x62	; 98
 2e2:	41 e6       	ldi	r20, 0x61	; 97
 2e4:	0e 94 53 03 	call	0x6a6	; 0x6a6 <LCD_send_Snum>
		LCD_send_char(',','a','b',0,'b',1);
 2e8:	ee 24       	eor	r14, r14
 2ea:	e3 94       	inc	r14
 2ec:	02 e6       	ldi	r16, 0x62	; 98
 2ee:	20 e0       	ldi	r18, 0x00	; 0
 2f0:	42 e6       	ldi	r20, 0x62	; 98
 2f2:	61 e6       	ldi	r22, 0x61	; 97
 2f4:	8c e2       	ldi	r24, 0x2C	; 44
 2f6:	0e 94 2c 04 	call	0x858	; 0x858 <LCD_send_char>
		LCD_send_Snum(fraction_temp,'a','b',0,'b',1);
 2fa:	61 2f       	mov	r22, r17
 2fc:	70 e0       	ldi	r23, 0x00	; 0
 2fe:	80 e0       	ldi	r24, 0x00	; 0
 300:	90 e0       	ldi	r25, 0x00	; 0
 302:	0f 2e       	mov	r0, r31
 304:	f2 e6       	ldi	r31, 0x62	; 98
 306:	ef 2e       	mov	r14, r31
 308:	f0 2d       	mov	r31, r0
 30a:	00 e0       	ldi	r16, 0x00	; 0
 30c:	22 e6       	ldi	r18, 0x62	; 98
 30e:	41 e6       	ldi	r20, 0x61	; 97
 310:	0e 94 53 03 	call	0x6a6	; 0x6a6 <LCD_send_Snum>
		//-----------------------------
		LCD_move_cursor(2,7,'a','b',0,'b',1);
 314:	22 e6       	ldi	r18, 0x62	; 98
 316:	41 e6       	ldi	r20, 0x61	; 97
 318:	67 e0       	ldi	r22, 0x07	; 7
 31a:	82 e0       	ldi	r24, 0x02	; 2
 31c:	0e 94 8c 04 	call	0x918	; 0x918 <LCD_move_cursor>
		LCD_send_Snum(int_h,'a','b',0,'b',1);
 320:	6d 2f       	mov	r22, r29
 322:	70 e0       	ldi	r23, 0x00	; 0
 324:	80 e0       	ldi	r24, 0x00	; 0
 326:	90 e0       	ldi	r25, 0x00	; 0
 328:	22 e6       	ldi	r18, 0x62	; 98
 32a:	41 e6       	ldi	r20, 0x61	; 97
 32c:	0e 94 53 03 	call	0x6a6	; 0x6a6 <LCD_send_Snum>
		LCD_send_char(',','a','b',0,'b',1);
 330:	ee 24       	eor	r14, r14
 332:	e3 94       	inc	r14
 334:	02 e6       	ldi	r16, 0x62	; 98
 336:	20 e0       	ldi	r18, 0x00	; 0
 338:	42 e6       	ldi	r20, 0x62	; 98
 33a:	61 e6       	ldi	r22, 0x61	; 97
 33c:	8c e2       	ldi	r24, 0x2C	; 44
 33e:	0e 94 2c 04 	call	0x858	; 0x858 <LCD_send_char>
		LCD_send_Snum(fraction_h,'a','b',0,'b',1);
 342:	6c 2f       	mov	r22, r28
 344:	70 e0       	ldi	r23, 0x00	; 0
 346:	80 e0       	ldi	r24, 0x00	; 0
 348:	90 e0       	ldi	r25, 0x00	; 0
 34a:	0f 2e       	mov	r0, r31
 34c:	f2 e6       	ldi	r31, 0x62	; 98
 34e:	ef 2e       	mov	r14, r31
 350:	f0 2d       	mov	r31, r0
 352:	00 e0       	ldi	r16, 0x00	; 0
 354:	22 e6       	ldi	r18, 0x62	; 98
 356:	41 e6       	ldi	r20, 0x61	; 97
 358:	0e 94 53 03 	call	0x6a6	; 0x6a6 <LCD_send_Snum>
 35c:	87 ea       	ldi	r24, 0xA7	; 167
 35e:	91 e6       	ldi	r25, 0x61	; 97
 360:	01 97       	sbiw	r24, 0x01	; 1
 362:	f1 f7       	brne	.-4      	; 0x360 <main+0x140>
 364:	00 c0       	rjmp	.+0      	; 0x366 <main+0x146>
 366:	00 00       	nop
 368:	86 cf       	rjmp	.-244    	; 0x276 <main+0x56>

Disassembly of section .text.libgcc.div:

00000972 <__udivmodsi4>:
 972:	a1 e2       	ldi	r26, 0x21	; 33
 974:	1a 2e       	mov	r1, r26
 976:	aa 1b       	sub	r26, r26
 978:	bb 1b       	sub	r27, r27
 97a:	fd 01       	movw	r30, r26
 97c:	0d c0       	rjmp	.+26     	; 0x998 <__udivmodsi4_ep>

0000097e <__udivmodsi4_loop>:
 97e:	aa 1f       	adc	r26, r26
 980:	bb 1f       	adc	r27, r27
 982:	ee 1f       	adc	r30, r30
 984:	ff 1f       	adc	r31, r31
 986:	a2 17       	cp	r26, r18
 988:	b3 07       	cpc	r27, r19
 98a:	e4 07       	cpc	r30, r20
 98c:	f5 07       	cpc	r31, r21
 98e:	20 f0       	brcs	.+8      	; 0x998 <__udivmodsi4_ep>
 990:	a2 1b       	sub	r26, r18
 992:	b3 0b       	sbc	r27, r19
 994:	e4 0b       	sbc	r30, r20
 996:	f5 0b       	sbc	r31, r21

00000998 <__udivmodsi4_ep>:
 998:	66 1f       	adc	r22, r22
 99a:	77 1f       	adc	r23, r23
 99c:	88 1f       	adc	r24, r24
 99e:	99 1f       	adc	r25, r25
 9a0:	1a 94       	dec	r1
 9a2:	69 f7       	brne	.-38     	; 0x97e <__udivmodsi4_loop>
 9a4:	60 95       	com	r22
 9a6:	70 95       	com	r23
 9a8:	80 95       	com	r24
 9aa:	90 95       	com	r25
 9ac:	9b 01       	movw	r18, r22
 9ae:	ac 01       	movw	r20, r24
 9b0:	bd 01       	movw	r22, r26
 9b2:	cf 01       	movw	r24, r30
 9b4:	08 95       	ret

Disassembly of section .text.libgcc.div:

00000a22 <__divmodsi4>:
 a22:	05 2e       	mov	r0, r21
 a24:	97 fb       	bst	r25, 7
 a26:	1e f4       	brtc	.+6      	; 0xa2e <__divmodsi4+0xc>
 a28:	00 94       	com	r0
 a2a:	0e 94 5d 05 	call	0xaba	; 0xaba <__negsi2>
 a2e:	57 fd       	sbrc	r21, 7
 a30:	07 d0       	rcall	.+14     	; 0xa40 <__divmodsi4_neg2>
 a32:	0e 94 b9 04 	call	0x972	; 0x972 <__udivmodsi4>
 a36:	07 fc       	sbrc	r0, 7
 a38:	03 d0       	rcall	.+6      	; 0xa40 <__divmodsi4_neg2>
 a3a:	4e f4       	brtc	.+18     	; 0xa4e <__divmodsi4_exit>
 a3c:	0c 94 5d 05 	jmp	0xaba	; 0xaba <__negsi2>

00000a40 <__divmodsi4_neg2>:
 a40:	50 95       	com	r21
 a42:	40 95       	com	r20
 a44:	30 95       	com	r19
 a46:	21 95       	neg	r18
 a48:	3f 4f       	sbci	r19, 0xFF	; 255
 a4a:	4f 4f       	sbci	r20, 0xFF	; 255
 a4c:	5f 4f       	sbci	r21, 0xFF	; 255

00000a4e <__divmodsi4_exit>:
 a4e:	08 95       	ret

Disassembly of section .text.libgcc.div:

00000aba <__negsi2>:
 aba:	90 95       	com	r25
 abc:	80 95       	com	r24
 abe:	70 95       	com	r23
 ac0:	61 95       	neg	r22
 ac2:	7f 4f       	sbci	r23, 0xFF	; 255
 ac4:	8f 4f       	sbci	r24, 0xFF	; 255
 ac6:	9f 4f       	sbci	r25, 0xFF	; 255
 ac8:	08 95       	ret

Disassembly of section .text.libgcc:

00000aca <__tablejump2__>:
 aca:	ee 0f       	add	r30, r30
 acc:	ff 1f       	adc	r31, r31
 ace:	05 90       	lpm	r0, Z+
 ad0:	f4 91       	lpm	r31, Z
 ad2:	e0 2d       	mov	r30, r0
 ad4:	09 94       	ijmp
